Archive member included to satisfy reference by file (symbol)

c:/compiler/gcc-arm-none-eabi-10.3/bin/../lib/gcc/arm-none-eabi/10.3.1/thumb/v7e-m+fp/hard\libgcc.a(_aeabi_uldivmod.o)
                              tmp/obj/gcc/can_freertos_customization/OsIf_Timer_System.o (__aeabi_uldivmod)
c:/compiler/gcc-arm-none-eabi-10.3/bin/../lib/gcc/arm-none-eabi/10.3.1/thumb/v7e-m+fp/hard\libgcc.a(_udivmoddi4.o)
                              c:/compiler/gcc-arm-none-eabi-10.3/bin/../lib/gcc/arm-none-eabi/10.3.1/thumb/v7e-m+fp/hard\libgcc.a(_aeabi_uldivmod.o) (__udivmoddi4)
c:/compiler/gcc-arm-none-eabi-10.3/bin/../lib/gcc/arm-none-eabi/10.3.1/thumb/v7e-m+fp/hard\libgcc.a(_dvmd_tls.o)
                              c:/compiler/gcc-arm-none-eabi-10.3/bin/../lib/gcc/arm-none-eabi/10.3.1/thumb/v7e-m+fp/hard\libgcc.a(_aeabi_uldivmod.o) (__aeabi_ldiv0)
c:/compiler/gcc-arm-none-eabi-10.3/bin/../lib/gcc/arm-none-eabi/10.3.1/../../../../arm-none-eabi/lib/thumb/v7e-m+fp/hard\libg_nano.a(lib_a-memcpy-stub.o)
                              tmp/obj/gcc/can_freertos_customization/Can_Llce.o (memcpy)
c:/compiler/gcc-arm-none-eabi-10.3/bin/../lib/gcc/arm-none-eabi/10.3.1/../../../../arm-none-eabi/lib/thumb/v7e-m+fp/hard\libg_nano.a(lib_a-memset.o)
                              tmp/obj/gcc/can_freertos_customization/main.o (memset)
c:/compiler/gcc-arm-none-eabi-10.3/bin/../lib/gcc/arm-none-eabi/10.3.1/../../../../arm-none-eabi/lib/thumb/v7e-m+fp/hard\libg_nano.a(lib_a-sprintf.o)
                              tmp/obj/gcc/can_freertos_customization/tasks.o (sprintf)
c:/compiler/gcc-arm-none-eabi-10.3/bin/../lib/gcc/arm-none-eabi/10.3.1/../../../../arm-none-eabi/lib/thumb/v7e-m+fp/hard\libg_nano.a(lib_a-strcpy.o)
                              tmp/obj/gcc/can_freertos_customization/tasks.o (strcpy)
c:/compiler/gcc-arm-none-eabi-10.3/bin/../lib/gcc/arm-none-eabi/10.3.1/../../../../arm-none-eabi/lib/thumb/v7e-m+fp/hard\libg_nano.a(lib_a-strlen.o)
                              tmp/obj/gcc/can_freertos_customization/tasks.o (strlen)
c:/compiler/gcc-arm-none-eabi-10.3/bin/../lib/gcc/arm-none-eabi/10.3.1/../../../../arm-none-eabi/lib/thumb/v7e-m+fp/hard\libg_nano.a(lib_a-impure.o)
                              c:/compiler/gcc-arm-none-eabi-10.3/bin/../lib/gcc/arm-none-eabi/10.3.1/../../../../arm-none-eabi/lib/thumb/v7e-m+fp/hard\libg_nano.a(lib_a-sprintf.o) (_impure_ptr)
c:/compiler/gcc-arm-none-eabi-10.3/bin/../lib/gcc/arm-none-eabi/10.3.1/../../../../arm-none-eabi/lib/thumb/v7e-m+fp/hard\libg_nano.a(lib_a-nano-svfprintf.o)
                              c:/compiler/gcc-arm-none-eabi-10.3/bin/../lib/gcc/arm-none-eabi/10.3.1/../../../../arm-none-eabi/lib/thumb/v7e-m+fp/hard\libg_nano.a(lib_a-sprintf.o) (_svfprintf_r)
c:/compiler/gcc-arm-none-eabi-10.3/bin/../lib/gcc/arm-none-eabi/10.3.1/../../../../arm-none-eabi/lib/thumb/v7e-m+fp/hard\libg_nano.a(lib_a-nano-vfprintf_i.o)
                              c:/compiler/gcc-arm-none-eabi-10.3/bin/../lib/gcc/arm-none-eabi/10.3.1/../../../../arm-none-eabi/lib/thumb/v7e-m+fp/hard\libg_nano.a(lib_a-nano-svfprintf.o) (_printf_i)
c:/compiler/gcc-arm-none-eabi-10.3/bin/../lib/gcc/arm-none-eabi/10.3.1/../../../../arm-none-eabi/lib/thumb/v7e-m+fp/hard\libg_nano.a(lib_a-memchr.o)
                              c:/compiler/gcc-arm-none-eabi-10.3/bin/../lib/gcc/arm-none-eabi/10.3.1/../../../../arm-none-eabi/lib/thumb/v7e-m+fp/hard\libg_nano.a(lib_a-nano-svfprintf.o) (memchr)
c:/compiler/gcc-arm-none-eabi-10.3/bin/../lib/gcc/arm-none-eabi/10.3.1/../../../../arm-none-eabi/lib/thumb/v7e-m+fp/hard\libg_nano.a(lib_a-memmove.o)
                              c:/compiler/gcc-arm-none-eabi-10.3/bin/../lib/gcc/arm-none-eabi/10.3.1/../../../../arm-none-eabi/lib/thumb/v7e-m+fp/hard\libg_nano.a(lib_a-nano-svfprintf.o) (memmove)
c:/compiler/gcc-arm-none-eabi-10.3/bin/../lib/gcc/arm-none-eabi/10.3.1/../../../../arm-none-eabi/lib/thumb/v7e-m+fp/hard\libg_nano.a(lib_a-nano-freer.o)
                              c:/compiler/gcc-arm-none-eabi-10.3/bin/../lib/gcc/arm-none-eabi/10.3.1/../../../../arm-none-eabi/lib/thumb/v7e-m+fp/hard\libg_nano.a(lib_a-nano-svfprintf.o) (_free_r)
c:/compiler/gcc-arm-none-eabi-10.3/bin/../lib/gcc/arm-none-eabi/10.3.1/../../../../arm-none-eabi/lib/thumb/v7e-m+fp/hard\libg_nano.a(lib_a-nano-mallocr.o)
                              c:/compiler/gcc-arm-none-eabi-10.3/bin/../lib/gcc/arm-none-eabi/10.3.1/../../../../arm-none-eabi/lib/thumb/v7e-m+fp/hard\libg_nano.a(lib_a-nano-svfprintf.o) (_malloc_r)
c:/compiler/gcc-arm-none-eabi-10.3/bin/../lib/gcc/arm-none-eabi/10.3.1/../../../../arm-none-eabi/lib/thumb/v7e-m+fp/hard\libg_nano.a(lib_a-nano-reallocr.o)
                              c:/compiler/gcc-arm-none-eabi-10.3/bin/../lib/gcc/arm-none-eabi/10.3.1/../../../../arm-none-eabi/lib/thumb/v7e-m+fp/hard\libg_nano.a(lib_a-nano-svfprintf.o) (_realloc_r)
c:/compiler/gcc-arm-none-eabi-10.3/bin/../lib/gcc/arm-none-eabi/10.3.1/../../../../arm-none-eabi/lib/thumb/v7e-m+fp/hard\libg_nano.a(lib_a-sbrkr.o)
                              c:/compiler/gcc-arm-none-eabi-10.3/bin/../lib/gcc/arm-none-eabi/10.3.1/../../../../arm-none-eabi/lib/thumb/v7e-m+fp/hard\libg_nano.a(lib_a-nano-mallocr.o) (_sbrk_r)
c:/compiler/gcc-arm-none-eabi-10.3/bin/../lib/gcc/arm-none-eabi/10.3.1/../../../../arm-none-eabi/lib/thumb/v7e-m+fp/hard\libg_nano.a(lib_a-mlock.o)
                              c:/compiler/gcc-arm-none-eabi-10.3/bin/../lib/gcc/arm-none-eabi/10.3.1/../../../../arm-none-eabi/lib/thumb/v7e-m+fp/hard\libg_nano.a(lib_a-nano-freer.o) (__malloc_lock)
c:/compiler/gcc-arm-none-eabi-10.3/bin/../lib/gcc/arm-none-eabi/10.3.1/../../../../arm-none-eabi/lib/thumb/v7e-m+fp/hard\libg_nano.a(lib_a-nano-msizer.o)
                              c:/compiler/gcc-arm-none-eabi-10.3/bin/../lib/gcc/arm-none-eabi/10.3.1/../../../../arm-none-eabi/lib/thumb/v7e-m+fp/hard\libg_nano.a(lib_a-nano-reallocr.o) (_malloc_usable_size_r)
c:/compiler/gcc-arm-none-eabi-10.3/bin/../lib/gcc/arm-none-eabi/10.3.1/../../../../arm-none-eabi/lib/thumb/v7e-m+fp/hard\libg_nano.a(lib_a-reent.o)
                              c:/compiler/gcc-arm-none-eabi-10.3/bin/../lib/gcc/arm-none-eabi/10.3.1/../../../../arm-none-eabi/lib/thumb/v7e-m+fp/hard\libg_nano.a(lib_a-sbrkr.o) (errno)
c:/compiler/gcc-arm-none-eabi-10.3/bin/../lib/gcc/arm-none-eabi/10.3.1/../../../../arm-none-eabi/lib/thumb/v7e-m+fp/hard\libg_nano.a(lib_a-lock.o)
                              c:/compiler/gcc-arm-none-eabi-10.3/bin/../lib/gcc/arm-none-eabi/10.3.1/../../../../arm-none-eabi/lib/thumb/v7e-m+fp/hard\libg_nano.a(lib_a-mlock.o) (__retarget_lock_acquire_recursive)
c:/compiler/gcc-arm-none-eabi-10.3/bin/../lib/gcc/arm-none-eabi/10.3.1/../../../../arm-none-eabi/lib/thumb/v7e-m+fp/hard\libnosys.a(sbrk.o)
                              c:/compiler/gcc-arm-none-eabi-10.3/bin/../lib/gcc/arm-none-eabi/10.3.1/../../../../arm-none-eabi/lib/thumb/v7e-m+fp/hard\libg_nano.a(lib_a-sbrkr.o) (_sbrk)

Discarded input sections

 .boot_header   0x00000000       0x28 C:\cygwin64\tmp\ccklK50t.o

Memory Configuration

Name             Origin             Length             Attributes
int_itcm         0x00000000         0x00000000
int_dtcm         0x20000000         0x00010000
int_sram_shareable 0x22c00000         0x00004000
int_sram         0x34000000         0x00400000
int_sram_stack_c0 0x34400000         0x00002000
int_sram_stack_c1 0x34402000         0x00002000
int_sram_stack_c2 0x34404000         0x00002000
int_sram_no_cacheable 0x34500000         0x00100000
ram_rsvd2        0x34600000         0x00000000
LLCE_CAN_SHAREDMEMORY 0x43800000         0x0003c800
LLCE_LIN_SHAREDMEMORY 0x4383c800         0x000000a0
LLCE_BOOT_END    0x4383c8a0         0x00000050
LLCE_MEAS_SHAREDMEMORY 0x4384ffdf         0x00000020
*default*        0x00000000         0xffffffff

Linker script and memory map

LOAD C:\cygwin64\tmp\ccMsMF9r.o
LOAD C:\cygwin64\tmp\ccklK50t.o
LOAD tmp/obj/gcc/can_freertos_customization/nvic.o
LOAD tmp/obj/gcc/can_freertos_customization/exceptions.o
LOAD tmp/obj/gcc/can_freertos_customization/Platform_Init.o
LOAD tmp/obj/gcc/can_freertos_customization/can_common.o
LOAD tmp/obj/gcc/can_freertos_customization/stubs.o
LOAD tmp/obj/gcc/can_freertos_customization/dte.o
LOAD tmp/obj/gcc/can_freertos_customization/frpe.o
LOAD tmp/obj/gcc/can_freertos_customization/ppe_rx.o
LOAD tmp/obj/gcc/can_freertos_customization/ppe_tx.o
LOAD tmp/obj/gcc/can_freertos_customization/Llce_Firmware_Load.o
LOAD tmp/obj/gcc/can_freertos_customization/main.o
LOAD tmp/obj/gcc/can_freertos_customization/TIC12400Drv.o
LOAD tmp/obj/gcc/can_freertos_customization/Can_43_LLCE_AFcfg.o
LOAD tmp/obj/gcc/can_freertos_customization/Can_43_LLCE_Cfg.o
LOAD tmp/obj/gcc/can_freertos_customization/Can_43_LLCE_VS_0_PBcfg.o
LOAD tmp/obj/gcc/can_freertos_customization/Clock_Ip_Cfg.o
LOAD tmp/obj/gcc/can_freertos_customization/Clock_Ip_VS_0_PBcfg.o
LOAD tmp/obj/gcc/can_freertos_customization/Dio_Cfg.o
LOAD tmp/obj/gcc/can_freertos_customization/IntCtrl_Ip_Cfg.o
LOAD tmp/obj/gcc/can_freertos_customization/Mcu_Cfg.o
LOAD tmp/obj/gcc/can_freertos_customization/Mcu_VS_0_PBcfg.o
LOAD tmp/obj/gcc/can_freertos_customization/OsIf_Cfg.o
LOAD tmp/obj/gcc/can_freertos_customization/Platform_Cfg.o
LOAD tmp/obj/gcc/can_freertos_customization/Platform_Ipw_Cfg.o
LOAD tmp/obj/gcc/can_freertos_customization/Port_Cfg.o
LOAD tmp/obj/gcc/can_freertos_customization/Port_VS_0_PBcfg.o
LOAD tmp/obj/gcc/can_freertos_customization/Power_Ip_Cfg.o
LOAD tmp/obj/gcc/can_freertos_customization/Power_Ip_VS_0_PBcfg.o
LOAD tmp/obj/gcc/can_freertos_customization/Ram_Ip_Cfg.o
LOAD tmp/obj/gcc/can_freertos_customization/Ram_Ip_VS_0_PBcfg.o
LOAD tmp/obj/gcc/can_freertos_customization/Siul2_Port_Ip_VS_0_PBcfg.o
LOAD tmp/obj/gcc/can_freertos_customization/Spi_Ip_VS_0_PBcfg.o
LOAD tmp/obj/gcc/can_freertos_customization/Spi_Ipw_VS_0_PBcfg.o
LOAD tmp/obj/gcc/can_freertos_customization/Spi_VS_0_PBcfg.o
LOAD tmp/obj/gcc/can_freertos_customization/OsIf_Interrupts.o
LOAD tmp/obj/gcc/can_freertos_customization/OsIf_Timer.o
LOAD tmp/obj/gcc/can_freertos_customization/OsIf_Timer_System.o
LOAD tmp/obj/gcc/can_freertos_customization/OsIf_Timer_System_Internal_GenericTimer.o
LOAD tmp/obj/gcc/can_freertos_customization/OsIf_Timer_System_Internal_Systick.o
LOAD tmp/obj/gcc/can_freertos_customization/Det.o
LOAD tmp/obj/gcc/can_freertos_customization/Det_stub.o
LOAD tmp/obj/gcc/can_freertos_customization/Dem.o
LOAD tmp/obj/gcc/can_freertos_customization/Dem_stub.o
LOAD tmp/obj/gcc/can_freertos_customization/EcuM.o
LOAD tmp/obj/gcc/can_freertos_customization/Clock_Ip.o
LOAD tmp/obj/gcc/can_freertos_customization/Clock_Ip_Data.o
LOAD tmp/obj/gcc/can_freertos_customization/Clock_Ip_Data1.o
LOAD tmp/obj/gcc/can_freertos_customization/Clock_Ip_Data2.o
LOAD tmp/obj/gcc/can_freertos_customization/Clock_Ip_Divider.o
LOAD tmp/obj/gcc/can_freertos_customization/Clock_Ip_DividerTrigger.o
LOAD tmp/obj/gcc/can_freertos_customization/Clock_Ip_ExtOsc.o
LOAD tmp/obj/gcc/can_freertos_customization/Clock_Ip_FracDiv.o
LOAD tmp/obj/gcc/can_freertos_customization/Clock_Ip_Frequency.o
LOAD tmp/obj/gcc/can_freertos_customization/Clock_Ip_Frequency1.o
LOAD tmp/obj/gcc/can_freertos_customization/Clock_Ip_Frequency2.o
LOAD tmp/obj/gcc/can_freertos_customization/Clock_Ip_Gate.o
LOAD tmp/obj/gcc/can_freertos_customization/Clock_Ip_IntOsc.o
LOAD tmp/obj/gcc/can_freertos_customization/Clock_Ip_Irq.o
LOAD tmp/obj/gcc/can_freertos_customization/Clock_Ip_Monitor.o
LOAD tmp/obj/gcc/can_freertos_customization/Clock_Ip_Pll.o
LOAD tmp/obj/gcc/can_freertos_customization/Clock_Ip_ProgFreqSwitch.o
LOAD tmp/obj/gcc/can_freertos_customization/Clock_Ip_Selector.o
LOAD tmp/obj/gcc/can_freertos_customization/Clock_Ip_Specific.o
LOAD tmp/obj/gcc/can_freertos_customization/Clock_Ip_Specific1.o
LOAD tmp/obj/gcc/can_freertos_customization/Clock_Ip_Specific2.o
LOAD tmp/obj/gcc/can_freertos_customization/Mcu.o
LOAD tmp/obj/gcc/can_freertos_customization/Mcu_Dem_Wrapper.o
LOAD tmp/obj/gcc/can_freertos_customization/Mcu_Ipw.o
LOAD tmp/obj/gcc/can_freertos_customization/Power_Ip.o
LOAD tmp/obj/gcc/can_freertos_customization/Power_Ip_CortexA.o
LOAD tmp/obj/gcc/can_freertos_customization/Power_Ip_CortexM7.o
LOAD tmp/obj/gcc/can_freertos_customization/Power_Ip_MC_ME.o
LOAD tmp/obj/gcc/can_freertos_customization/Power_Ip_MC_RGM.o
LOAD tmp/obj/gcc/can_freertos_customization/Power_Ip_MC_RGM_Irq.o
LOAD tmp/obj/gcc/can_freertos_customization/Power_Ip_MSCM.o
LOAD tmp/obj/gcc/can_freertos_customization/Power_Ip_PMC.o
LOAD tmp/obj/gcc/can_freertos_customization/Power_Ip_Private.o
LOAD tmp/obj/gcc/can_freertos_customization/Ram_Ip.o
LOAD tmp/obj/gcc/can_freertos_customization/Port.o
LOAD tmp/obj/gcc/can_freertos_customization/Port_Ipw.o
LOAD tmp/obj/gcc/can_freertos_customization/Siul2_Port_Ip.o
LOAD tmp/obj/gcc/can_freertos_customization/Dio.o
LOAD tmp/obj/gcc/can_freertos_customization/Dio_Ipw.o
LOAD tmp/obj/gcc/can_freertos_customization/Siul2_Dio_Ip.o
LOAD tmp/obj/gcc/can_freertos_customization/Spi.o
LOAD tmp/obj/gcc/can_freertos_customization/Spi_Ip.o
LOAD tmp/obj/gcc/can_freertos_customization/Spi_Ip_Irq.o
LOAD tmp/obj/gcc/can_freertos_customization/Spi_Ipw.o
LOAD tmp/obj/gcc/can_freertos_customization/SchM_Mcu.o
LOAD tmp/obj/gcc/can_freertos_customization/SchM_Port.o
LOAD tmp/obj/gcc/can_freertos_customization/SchM_Dio.o
LOAD tmp/obj/gcc/can_freertos_customization/SchM_Spi.o
LOAD tmp/obj/gcc/can_freertos_customization/system.o
LOAD tmp/obj/gcc/can_freertos_customization/IntCtrl_Ip.o
LOAD tmp/obj/gcc/can_freertos_customization/Platform.o
LOAD tmp/obj/gcc/can_freertos_customization/Platform_Ipw.o
LOAD tmp/obj/gcc/can_freertos_customization/System_Ip.o
LOAD tmp/obj/gcc/can_freertos_customization/SchM_Can_43_LLCE.o
LOAD tmp/obj/gcc/can_freertos_customization/Can_43_LLCE.o
LOAD tmp/obj/gcc/can_freertos_customization/Can_43_LLCE_IPW.o
LOAD tmp/obj/gcc/can_freertos_customization/Can_43_LLCE_Irq.o
LOAD tmp/obj/gcc/can_freertos_customization/Can_Callback.o
LOAD tmp/obj/gcc/can_freertos_customization/Can_Llce.o
LOAD tmp/obj/gcc/can_freertos_customization/Llce_InterfaceCanConfig.o
LOAD tmp/obj/gcc/can_freertos_customization/Llce_SwFifo.o
LOAD tmp/obj/gcc/can_freertos_customization/croutine.o
LOAD tmp/obj/gcc/can_freertos_customization/event_groups.o
LOAD tmp/obj/gcc/can_freertos_customization/list.o
LOAD tmp/obj/gcc/can_freertos_customization/queue.o
LOAD tmp/obj/gcc/can_freertos_customization/stream_buffer.o
LOAD tmp/obj/gcc/can_freertos_customization/tasks.o
LOAD tmp/obj/gcc/can_freertos_customization/timers.o
LOAD tmp/obj/gcc/can_freertos_customization/port_freertos.o
LOAD tmp/obj/gcc/can_freertos_customization/heap_4.o
LOAD C:\cygwin64\tmp\ccS5tM1S.o
START GROUP
LOAD c:/compiler/gcc-arm-none-eabi-10.3/bin/../lib/gcc/arm-none-eabi/10.3.1/thumb/v7e-m+fp/hard\libgcc.a
LOAD c:/compiler/gcc-arm-none-eabi-10.3/bin/../lib/gcc/arm-none-eabi/10.3.1/../../../../arm-none-eabi/lib/thumb/v7e-m+fp/hard\libg_nano.a
LOAD c:/compiler/gcc-arm-none-eabi-10.3/bin/../lib/gcc/arm-none-eabi/10.3.1/../../../../arm-none-eabi/lib/thumb/v7e-m+fp/hard\libc_nano.a
END GROUP
START GROUP
LOAD c:/compiler/gcc-arm-none-eabi-10.3/bin/../lib/gcc/arm-none-eabi/10.3.1/thumb/v7e-m+fp/hard\libgcc.a
LOAD c:/compiler/gcc-arm-none-eabi-10.3/bin/../lib/gcc/arm-none-eabi/10.3.1/../../../../arm-none-eabi/lib/thumb/v7e-m+fp/hard\libc_nano.a
LOAD c:/compiler/gcc-arm-none-eabi-10.3/bin/../lib/gcc/arm-none-eabi/10.3.1/../../../../arm-none-eabi/lib/thumb/v7e-m+fp/hard\libnosys.a
END GROUP
START GROUP
LOAD c:/compiler/gcc-arm-none-eabi-10.3/bin/../lib/gcc/arm-none-eabi/10.3.1/thumb/v7e-m+fp/hard\libgcc.a
LOAD c:/compiler/gcc-arm-none-eabi-10.3/bin/../lib/gcc/arm-none-eabi/10.3.1/../../../../arm-none-eabi/lib/thumb/v7e-m+fp/hard\libc_nano.a
LOAD c:/compiler/gcc-arm-none-eabi-10.3/bin/../lib/gcc/arm-none-eabi/10.3.1/../../../../arm-none-eabi/lib/thumb/v7e-m+fp/hard\libnosys.a
END GROUP
                0x00003000                HEAP_SIZE = DEFINED (__heap_size__)?__heap_size__:0x3000

.sram           0x34000000    0x75e20
                0x34000000                . = ALIGN (0x4)
 *(.core_loop)
 .core_loop     0x34000000        0xc C:\cygwin64\tmp\ccklK50t.o
                0x34000000                _core_loop
                0x3400000c                . = ALIGN (0x4)
 *(.startup)
 *fill*         0x3400000c        0x4 
 .startup       0x34000010      0x1d0 C:\cygwin64\tmp\ccklK50t.o
                0x34000010                Reset_Handler
                0x34000010                _start
                0x3400016a                MCAL_LTB_TRACE_OFF
                0x3400016c                _end_of_eunit_test
                0x340001e0                . = ALIGN (0x4)
 *(.text.startup)
                0x340001e0                . = ALIGN (0x4)
 *(.text)
 .text          0x340001e0        0x0 C:\cygwin64\tmp\ccMsMF9r.o
 .text          0x340001e0        0x0 C:\cygwin64\tmp\ccklK50t.o
 .text          0x340001e0        0x0 tmp/obj/gcc/can_freertos_customization/nvic.o
 .text          0x340001e0        0x0 tmp/obj/gcc/can_freertos_customization/exceptions.o
 .text          0x340001e0        0x0 tmp/obj/gcc/can_freertos_customization/Platform_Init.o
 .text          0x340001e0        0x0 tmp/obj/gcc/can_freertos_customization/can_common.o
 .text          0x340001e0        0x0 tmp/obj/gcc/can_freertos_customization/stubs.o
 .text          0x340001e0        0x0 tmp/obj/gcc/can_freertos_customization/dte.o
 .text          0x340001e0        0x0 tmp/obj/gcc/can_freertos_customization/frpe.o
 .text          0x340001e0        0x0 tmp/obj/gcc/can_freertos_customization/ppe_rx.o
 .text          0x340001e0        0x0 tmp/obj/gcc/can_freertos_customization/ppe_tx.o
 .text          0x340001e0        0x0 tmp/obj/gcc/can_freertos_customization/Llce_Firmware_Load.o
 .text          0x340001e0        0x0 tmp/obj/gcc/can_freertos_customization/main.o
 .text          0x340001e0        0x0 tmp/obj/gcc/can_freertos_customization/TIC12400Drv.o
 .text          0x340001e0        0x0 tmp/obj/gcc/can_freertos_customization/Can_43_LLCE_AFcfg.o
 .text          0x340001e0        0x0 tmp/obj/gcc/can_freertos_customization/Can_43_LLCE_Cfg.o
 .text          0x340001e0        0x0 tmp/obj/gcc/can_freertos_customization/Can_43_LLCE_VS_0_PBcfg.o
 .text          0x340001e0        0x0 tmp/obj/gcc/can_freertos_customization/Clock_Ip_Cfg.o
 .text          0x340001e0        0x0 tmp/obj/gcc/can_freertos_customization/Clock_Ip_VS_0_PBcfg.o
 .text          0x340001e0        0x0 tmp/obj/gcc/can_freertos_customization/Dio_Cfg.o
 .text          0x340001e0        0x0 tmp/obj/gcc/can_freertos_customization/IntCtrl_Ip_Cfg.o
 .text          0x340001e0        0x0 tmp/obj/gcc/can_freertos_customization/Mcu_Cfg.o
 .text          0x340001e0        0x0 tmp/obj/gcc/can_freertos_customization/Mcu_VS_0_PBcfg.o
 .text          0x340001e0        0x0 tmp/obj/gcc/can_freertos_customization/OsIf_Cfg.o
 .text          0x340001e0        0x0 tmp/obj/gcc/can_freertos_customization/Platform_Cfg.o
 .text          0x340001e0        0x0 tmp/obj/gcc/can_freertos_customization/Platform_Ipw_Cfg.o
 .text          0x340001e0        0x0 tmp/obj/gcc/can_freertos_customization/Port_Cfg.o
 .text          0x340001e0        0x0 tmp/obj/gcc/can_freertos_customization/Port_VS_0_PBcfg.o
 .text          0x340001e0        0x0 tmp/obj/gcc/can_freertos_customization/Power_Ip_Cfg.o
 .text          0x340001e0        0x0 tmp/obj/gcc/can_freertos_customization/Power_Ip_VS_0_PBcfg.o
 .text          0x340001e0        0x0 tmp/obj/gcc/can_freertos_customization/Ram_Ip_Cfg.o
 .text          0x340001e0        0x0 tmp/obj/gcc/can_freertos_customization/Ram_Ip_VS_0_PBcfg.o
 .text          0x340001e0        0x0 tmp/obj/gcc/can_freertos_customization/Siul2_Port_Ip_VS_0_PBcfg.o
 .text          0x340001e0        0x0 tmp/obj/gcc/can_freertos_customization/Spi_Ip_VS_0_PBcfg.o
 .text          0x340001e0        0x0 tmp/obj/gcc/can_freertos_customization/Spi_Ipw_VS_0_PBcfg.o
 .text          0x340001e0        0x0 tmp/obj/gcc/can_freertos_customization/Spi_VS_0_PBcfg.o
 .text          0x340001e0        0x0 tmp/obj/gcc/can_freertos_customization/OsIf_Interrupts.o
 .text          0x340001e0        0x0 tmp/obj/gcc/can_freertos_customization/OsIf_Timer.o
 .text          0x340001e0        0x0 tmp/obj/gcc/can_freertos_customization/OsIf_Timer_System.o
 .text          0x340001e0        0x0 tmp/obj/gcc/can_freertos_customization/OsIf_Timer_System_Internal_GenericTimer.o
 .text          0x340001e0        0x0 tmp/obj/gcc/can_freertos_customization/OsIf_Timer_System_Internal_Systick.o
 .text          0x340001e0        0x0 tmp/obj/gcc/can_freertos_customization/Det.o
 .text          0x340001e0        0x0 tmp/obj/gcc/can_freertos_customization/Det_stub.o
 .text          0x340001e0        0x0 tmp/obj/gcc/can_freertos_customization/Dem.o
 .text          0x340001e0        0x0 tmp/obj/gcc/can_freertos_customization/Dem_stub.o
 .text          0x340001e0        0x0 tmp/obj/gcc/can_freertos_customization/EcuM.o
 .text          0x340001e0        0x0 tmp/obj/gcc/can_freertos_customization/Clock_Ip.o
 .text          0x340001e0        0x0 tmp/obj/gcc/can_freertos_customization/Clock_Ip_Data.o
 .text          0x340001e0        0x0 tmp/obj/gcc/can_freertos_customization/Clock_Ip_Data1.o
 .text          0x340001e0        0x0 tmp/obj/gcc/can_freertos_customization/Clock_Ip_Data2.o
 .text          0x340001e0        0x0 tmp/obj/gcc/can_freertos_customization/Clock_Ip_Divider.o
 .text          0x340001e0        0x0 tmp/obj/gcc/can_freertos_customization/Clock_Ip_DividerTrigger.o
 .text          0x340001e0        0x0 tmp/obj/gcc/can_freertos_customization/Clock_Ip_ExtOsc.o
 .text          0x340001e0        0x0 tmp/obj/gcc/can_freertos_customization/Clock_Ip_FracDiv.o
 .text          0x340001e0        0x0 tmp/obj/gcc/can_freertos_customization/Clock_Ip_Frequency.o
 .text          0x340001e0        0x0 tmp/obj/gcc/can_freertos_customization/Clock_Ip_Frequency1.o
 .text          0x340001e0        0x0 tmp/obj/gcc/can_freertos_customization/Clock_Ip_Frequency2.o
 .text          0x340001e0        0x0 tmp/obj/gcc/can_freertos_customization/Clock_Ip_Gate.o
 .text          0x340001e0        0x0 tmp/obj/gcc/can_freertos_customization/Clock_Ip_IntOsc.o
 .text          0x340001e0        0x0 tmp/obj/gcc/can_freertos_customization/Clock_Ip_Irq.o
 .text          0x340001e0        0x0 tmp/obj/gcc/can_freertos_customization/Clock_Ip_Monitor.o
 .text          0x340001e0        0x0 tmp/obj/gcc/can_freertos_customization/Clock_Ip_Pll.o
 .text          0x340001e0        0x0 tmp/obj/gcc/can_freertos_customization/Clock_Ip_ProgFreqSwitch.o
 .text          0x340001e0        0x0 tmp/obj/gcc/can_freertos_customization/Clock_Ip_Selector.o
 .text          0x340001e0        0x0 tmp/obj/gcc/can_freertos_customization/Clock_Ip_Specific.o
 .text          0x340001e0        0x0 tmp/obj/gcc/can_freertos_customization/Clock_Ip_Specific1.o
 .text          0x340001e0        0x0 tmp/obj/gcc/can_freertos_customization/Clock_Ip_Specific2.o
 .text          0x340001e0        0x0 tmp/obj/gcc/can_freertos_customization/Mcu.o
 .text          0x340001e0        0x0 tmp/obj/gcc/can_freertos_customization/Mcu_Dem_Wrapper.o
 .text          0x340001e0        0x0 tmp/obj/gcc/can_freertos_customization/Mcu_Ipw.o
 .text          0x340001e0        0x0 tmp/obj/gcc/can_freertos_customization/Power_Ip.o
 .text          0x340001e0        0x0 tmp/obj/gcc/can_freertos_customization/Power_Ip_CortexA.o
 .text          0x340001e0        0x0 tmp/obj/gcc/can_freertos_customization/Power_Ip_CortexM7.o
 .text          0x340001e0        0x0 tmp/obj/gcc/can_freertos_customization/Power_Ip_MC_ME.o
 .text          0x340001e0        0x0 tmp/obj/gcc/can_freertos_customization/Power_Ip_MC_RGM.o
 .text          0x340001e0        0x0 tmp/obj/gcc/can_freertos_customization/Power_Ip_MC_RGM_Irq.o
 .text          0x340001e0        0x0 tmp/obj/gcc/can_freertos_customization/Power_Ip_MSCM.o
 .text          0x340001e0        0x0 tmp/obj/gcc/can_freertos_customization/Power_Ip_PMC.o
 .text          0x340001e0        0x0 tmp/obj/gcc/can_freertos_customization/Power_Ip_Private.o
 .text          0x340001e0        0x0 tmp/obj/gcc/can_freertos_customization/Ram_Ip.o
 .text          0x340001e0        0x0 tmp/obj/gcc/can_freertos_customization/Port.o
 .text          0x340001e0        0x0 tmp/obj/gcc/can_freertos_customization/Port_Ipw.o
 .text          0x340001e0        0x0 tmp/obj/gcc/can_freertos_customization/Siul2_Port_Ip.o
 .text          0x340001e0        0x0 tmp/obj/gcc/can_freertos_customization/Dio.o
 .text          0x340001e0        0x0 tmp/obj/gcc/can_freertos_customization/Dio_Ipw.o
 .text          0x340001e0        0x0 tmp/obj/gcc/can_freertos_customization/Siul2_Dio_Ip.o
 .text          0x340001e0        0x0 tmp/obj/gcc/can_freertos_customization/Spi.o
 .text          0x340001e0        0x0 tmp/obj/gcc/can_freertos_customization/Spi_Ip.o
 .text          0x340001e0        0x0 tmp/obj/gcc/can_freertos_customization/Spi_Ip_Irq.o
 .text          0x340001e0        0x0 tmp/obj/gcc/can_freertos_customization/Spi_Ipw.o
 .text          0x340001e0        0x0 tmp/obj/gcc/can_freertos_customization/SchM_Mcu.o
 .text          0x340001e0        0x0 tmp/obj/gcc/can_freertos_customization/SchM_Port.o
 .text          0x340001e0        0x0 tmp/obj/gcc/can_freertos_customization/SchM_Dio.o
 .text          0x340001e0        0x0 tmp/obj/gcc/can_freertos_customization/SchM_Spi.o
 .text          0x340001e0        0x0 tmp/obj/gcc/can_freertos_customization/system.o
 .text          0x340001e0        0x0 tmp/obj/gcc/can_freertos_customization/IntCtrl_Ip.o
 .text          0x340001e0        0x0 tmp/obj/gcc/can_freertos_customization/Platform.o
 .text          0x340001e0        0x0 tmp/obj/gcc/can_freertos_customization/Platform_Ipw.o
 .text          0x340001e0        0x0 tmp/obj/gcc/can_freertos_customization/System_Ip.o
 .text          0x340001e0        0x0 tmp/obj/gcc/can_freertos_customization/SchM_Can_43_LLCE.o
 .text          0x340001e0        0x0 tmp/obj/gcc/can_freertos_customization/Can_43_LLCE.o
 .text          0x340001e0        0x0 tmp/obj/gcc/can_freertos_customization/Can_43_LLCE_IPW.o
 .text          0x340001e0        0x0 tmp/obj/gcc/can_freertos_customization/Can_43_LLCE_Irq.o
 .text          0x340001e0        0x0 tmp/obj/gcc/can_freertos_customization/Can_Callback.o
 .text          0x340001e0        0x0 tmp/obj/gcc/can_freertos_customization/Can_Llce.o
 .text          0x340001e0        0x0 tmp/obj/gcc/can_freertos_customization/Llce_InterfaceCanConfig.o
 .text          0x340001e0        0x0 tmp/obj/gcc/can_freertos_customization/Llce_SwFifo.o
 .text          0x340001e0        0x0 tmp/obj/gcc/can_freertos_customization/croutine.o
 .text          0x340001e0        0x0 tmp/obj/gcc/can_freertos_customization/event_groups.o
 .text          0x340001e0        0x0 tmp/obj/gcc/can_freertos_customization/list.o
 .text          0x340001e0        0x0 tmp/obj/gcc/can_freertos_customization/queue.o
 .text          0x340001e0        0x0 tmp/obj/gcc/can_freertos_customization/stream_buffer.o
 .text          0x340001e0        0x0 tmp/obj/gcc/can_freertos_customization/tasks.o
 .text          0x340001e0        0x0 tmp/obj/gcc/can_freertos_customization/timers.o
 .text          0x340001e0        0x0 tmp/obj/gcc/can_freertos_customization/port_freertos.o
 .text          0x340001e0        0x0 tmp/obj/gcc/can_freertos_customization/heap_4.o
 .text          0x340001e0        0x0 C:\cygwin64\tmp\ccS5tM1S.o
 .text          0x340001e0       0x30 c:/compiler/gcc-arm-none-eabi-10.3/bin/../lib/gcc/arm-none-eabi/10.3.1/thumb/v7e-m+fp/hard\libgcc.a(_aeabi_uldivmod.o)
                0x340001e0                __aeabi_uldivmod
 .text          0x34000210      0x2d0 c:/compiler/gcc-arm-none-eabi-10.3/bin/../lib/gcc/arm-none-eabi/10.3.1/thumb/v7e-m+fp/hard\libgcc.a(_udivmoddi4.o)
                0x34000210                __udivmoddi4
 .text          0x340004e0        0x4 c:/compiler/gcc-arm-none-eabi-10.3/bin/../lib/gcc/arm-none-eabi/10.3.1/thumb/v7e-m+fp/hard\libgcc.a(_dvmd_tls.o)
                0x340004e0                __aeabi_idiv0
                0x340004e0                __aeabi_ldiv0
 .text          0x340004e4        0x0 c:/compiler/gcc-arm-none-eabi-10.3/bin/../lib/gcc/arm-none-eabi/10.3.1/../../../../arm-none-eabi/lib/thumb/v7e-m+fp/hard\libg_nano.a(lib_a-memcpy-stub.o)
 .text          0x340004e4        0x0 c:/compiler/gcc-arm-none-eabi-10.3/bin/../lib/gcc/arm-none-eabi/10.3.1/../../../../arm-none-eabi/lib/thumb/v7e-m+fp/hard\libg_nano.a(lib_a-memset.o)
 .text          0x340004e4        0x0 c:/compiler/gcc-arm-none-eabi-10.3/bin/../lib/gcc/arm-none-eabi/10.3.1/../../../../arm-none-eabi/lib/thumb/v7e-m+fp/hard\libg_nano.a(lib_a-sprintf.o)
 .text          0x340004e4        0x0 c:/compiler/gcc-arm-none-eabi-10.3/bin/../lib/gcc/arm-none-eabi/10.3.1/../../../../arm-none-eabi/lib/thumb/v7e-m+fp/hard\libg_nano.a(lib_a-strcpy.o)
 .text          0x340004e4       0x10 c:/compiler/gcc-arm-none-eabi-10.3/bin/../lib/gcc/arm-none-eabi/10.3.1/../../../../arm-none-eabi/lib/thumb/v7e-m+fp/hard\libg_nano.a(lib_a-strlen.o)
                0x340004e4                strlen
 .text          0x340004f4        0x0 c:/compiler/gcc-arm-none-eabi-10.3/bin/../lib/gcc/arm-none-eabi/10.3.1/../../../../arm-none-eabi/lib/thumb/v7e-m+fp/hard\libg_nano.a(lib_a-impure.o)
 .text          0x340004f4        0x0 c:/compiler/gcc-arm-none-eabi-10.3/bin/../lib/gcc/arm-none-eabi/10.3.1/../../../../arm-none-eabi/lib/thumb/v7e-m+fp/hard\libg_nano.a(lib_a-nano-svfprintf.o)
 .text          0x340004f4        0x0 c:/compiler/gcc-arm-none-eabi-10.3/bin/../lib/gcc/arm-none-eabi/10.3.1/../../../../arm-none-eabi/lib/thumb/v7e-m+fp/hard\libg_nano.a(lib_a-nano-vfprintf_i.o)
 *fill*         0x340004f4        0xc 
 .text          0x34000500       0xa0 c:/compiler/gcc-arm-none-eabi-10.3/bin/../lib/gcc/arm-none-eabi/10.3.1/../../../../arm-none-eabi/lib/thumb/v7e-m+fp/hard\libg_nano.a(lib_a-memchr.o)
                0x34000500                memchr
 .text          0x340005a0        0x0 c:/compiler/gcc-arm-none-eabi-10.3/bin/../lib/gcc/arm-none-eabi/10.3.1/../../../../arm-none-eabi/lib/thumb/v7e-m+fp/hard\libg_nano.a(lib_a-memmove.o)
 .text          0x340005a0        0x0 c:/compiler/gcc-arm-none-eabi-10.3/bin/../lib/gcc/arm-none-eabi/10.3.1/../../../../arm-none-eabi/lib/thumb/v7e-m+fp/hard\libg_nano.a(lib_a-nano-freer.o)
 .text          0x340005a0        0x0 c:/compiler/gcc-arm-none-eabi-10.3/bin/../lib/gcc/arm-none-eabi/10.3.1/../../../../arm-none-eabi/lib/thumb/v7e-m+fp/hard\libg_nano.a(lib_a-nano-mallocr.o)
 .text          0x340005a0        0x0 c:/compiler/gcc-arm-none-eabi-10.3/bin/../lib/gcc/arm-none-eabi/10.3.1/../../../../arm-none-eabi/lib/thumb/v7e-m+fp/hard\libg_nano.a(lib_a-nano-reallocr.o)
 .text          0x340005a0        0x0 c:/compiler/gcc-arm-none-eabi-10.3/bin/../lib/gcc/arm-none-eabi/10.3.1/../../../../arm-none-eabi/lib/thumb/v7e-m+fp/hard\libg_nano.a(lib_a-sbrkr.o)
 .text          0x340005a0        0x0 c:/compiler/gcc-arm-none-eabi-10.3/bin/../lib/gcc/arm-none-eabi/10.3.1/../../../../arm-none-eabi/lib/thumb/v7e-m+fp/hard\libg_nano.a(lib_a-mlock.o)
 .text          0x340005a0        0x0 c:/compiler/gcc-arm-none-eabi-10.3/bin/../lib/gcc/arm-none-eabi/10.3.1/../../../../arm-none-eabi/lib/thumb/v7e-m+fp/hard\libg_nano.a(lib_a-nano-msizer.o)
 .text          0x340005a0        0x0 c:/compiler/gcc-arm-none-eabi-10.3/bin/../lib/gcc/arm-none-eabi/10.3.1/../../../../arm-none-eabi/lib/thumb/v7e-m+fp/hard\libg_nano.a(lib_a-reent.o)
 .text          0x340005a0        0x0 c:/compiler/gcc-arm-none-eabi-10.3/bin/../lib/gcc/arm-none-eabi/10.3.1/../../../../arm-none-eabi/lib/thumb/v7e-m+fp/hard\libg_nano.a(lib_a-lock.o)
 .text          0x340005a0        0x0 c:/compiler/gcc-arm-none-eabi-10.3/bin/../lib/gcc/arm-none-eabi/10.3.1/../../../../arm-none-eabi/lib/thumb/v7e-m+fp/hard\libnosys.a(sbrk.o)
 *(.text*)
 .text.NVIC_SetPriorityGrouping
                0x340005a0       0x2c tmp/obj/gcc/can_freertos_customization/nvic.o
                0x340005a0                NVIC_SetPriorityGrouping
 .text.NVIC_EnableIRQ
                0x340005cc       0x34 tmp/obj/gcc/can_freertos_customization/nvic.o
                0x340005cc                NVIC_EnableIRQ
 .text.NVIC_DisableIRQ
                0x34000600       0x34 tmp/obj/gcc/can_freertos_customization/nvic.o
                0x34000600                NVIC_DisableIRQ
 .text.NVIC_SetPriority
                0x34000634       0x38 tmp/obj/gcc/can_freertos_customization/nvic.o
                0x34000634                NVIC_SetPriority
 .text.NMI_Handler
                0x3400066c        0x6 tmp/obj/gcc/can_freertos_customization/exceptions.o
                0x3400066c                NMI_Handler
 .text.HardFault_Handler
                0x34000672        0x6 tmp/obj/gcc/can_freertos_customization/exceptions.o
                0x34000672                HardFault_Handler
 .text.MemManage_Handler
                0x34000678        0x6 tmp/obj/gcc/can_freertos_customization/exceptions.o
                0x34000678                MemManage_Handler
 .text.BusFault_Handler
                0x3400067e        0x6 tmp/obj/gcc/can_freertos_customization/exceptions.o
                0x3400067e                BusFault_Handler
 .text.UsageFault_Handler
                0x34000684        0x6 tmp/obj/gcc/can_freertos_customization/exceptions.o
                0x34000684                UsageFault_Handler
 .text.SVC_Handler
                0x3400068a        0x6 tmp/obj/gcc/can_freertos_customization/exceptions.o
 .text.DebugMon_Handler
                0x34000690        0x6 tmp/obj/gcc/can_freertos_customization/exceptions.o
                0x34000690                DebugMon_Handler
 .text.PendSV_Handler
                0x34000696        0x6 tmp/obj/gcc/can_freertos_customization/exceptions.o
 .text.SysTick_Handler
                0x3400069c        0x6 tmp/obj/gcc/can_freertos_customization/exceptions.o
 .text.undefined_handler
                0x340006a2        0x6 tmp/obj/gcc/can_freertos_customization/exceptions.o
                0x340006a2                undefined_handler
 .text.Reg_Bit_Set32
                0x340006a8       0x22 tmp/obj/gcc/can_freertos_customization/Platform_Init.o
 .text.PlatformInit
                0x340006ca       0x40 tmp/obj/gcc/can_freertos_customization/Platform_Init.o
                0x340006ca                PlatformInit
 *fill*         0x3400070a        0x2 
 .text.Can_Enable_Timestamp
                0x3400070c       0x20 tmp/obj/gcc/can_freertos_customization/Platform_Init.o
 .text.Circular_Permutation
                0x3400072c       0x54 tmp/obj/gcc/can_freertos_customization/can_common.o
                0x3400072c                Circular_Permutation
 .text.Check_Status
                0x34000780       0xc8 tmp/obj/gcc/can_freertos_customization/can_common.o
                0x34000780                Check_Status
 .text.Can_CallBackSetUp
                0x34000848       0x38 tmp/obj/gcc/can_freertos_customization/stubs.o
                0x34000848                Can_CallBackSetUp
 .text.CanIf_RxIndication
                0x34000880       0xa4 tmp/obj/gcc/can_freertos_customization/stubs.o
                0x34000880                CanIf_RxIndication
 .text.CanIf_ControllerBusOff
                0x34000924       0x28 tmp/obj/gcc/can_freertos_customization/stubs.o
                0x34000924                CanIf_ControllerBusOff
 .text.CanIf_ControllerModeIndication
                0x3400094c       0x1c tmp/obj/gcc/can_freertos_customization/stubs.o
                0x3400094c                CanIf_ControllerModeIndication
 .text.CanIf_TxConfirmation
                0x34000968       0x44 tmp/obj/gcc/can_freertos_customization/stubs.o
                0x34000968                CanIf_TxConfirmation
 .text.RxTimestampNotification
                0x340009ac       0x18 tmp/obj/gcc/can_freertos_customization/stubs.o
                0x340009ac                RxTimestampNotification
 .text.TxTimestampNotification
                0x340009c4       0x1c tmp/obj/gcc/can_freertos_customization/stubs.o
                0x340009c4                TxTimestampNotification
 .text.CanErrorNotification
                0x340009e0       0x1c tmp/obj/gcc/can_freertos_customization/stubs.o
                0x340009e0                CanErrorNotification
 .text.CanWriteCustomCallback
                0x340009fc       0x1c tmp/obj/gcc/can_freertos_customization/stubs.o
                0x340009fc                CanWriteCustomCallback
 .text.CanTxConfirmationCustomCallback
                0x34000a18       0x1c tmp/obj/gcc/can_freertos_customization/stubs.o
                0x34000a18                CanTxConfirmationCustomCallback
 .text.Can_43_LLCE_RxCustomCallback
                0x34000a34       0x3c tmp/obj/gcc/can_freertos_customization/stubs.o
                0x34000a34                Can_43_LLCE_RxCustomCallback
 .text.Reg_Write32
                0x34000a70       0x1c tmp/obj/gcc/can_freertos_customization/Llce_Firmware_Load.o
 .text.Llce_Firmware_Load
                0x34000a8c      0x188 tmp/obj/gcc/can_freertos_customization/Llce_Firmware_Load.o
                0x34000a8c                Llce_Firmware_Load
 .text.Llce_Firmware_Load_GetBootStatus
                0x34000c14       0x88 tmp/obj/gcc/can_freertos_customization/Llce_Firmware_Load.o
                0x34000c14                Llce_Firmware_Load_GetBootStatus
 .text.Can_43_LLCE_GetCurrentConfig
                0x34000c9c       0x18 tmp/obj/gcc/can_freertos_customization/main.o
 .text.TestDelay
                0x34000cb4       0x34 tmp/obj/gcc/can_freertos_customization/main.o
                0x34000cb4                TestDelay
 .text.TIC12400Drv_Spi_TxRx
                0x34000ce8       0x5c tmp/obj/gcc/can_freertos_customization/main.o
                0x34000ce8                TIC12400Drv_Spi_TxRx
 .text.SpiOddParityPadding32Bits
                0x34000d44       0x62 tmp/obj/gcc/can_freertos_customization/main.o
                0x34000d44                SpiOddParityPadding32Bits
 .text.TIC12400Drv_SpiReadMode
                0x34000da6       0x6e tmp/obj/gcc/can_freertos_customization/main.o
                0x34000da6                TIC12400Drv_SpiReadMode
 .text.TIC12400Drv_ReadRegister
                0x34000e14       0x58 tmp/obj/gcc/can_freertos_customization/main.o
                0x34000e14                TIC12400Drv_ReadRegister
 .text.TIC12400Drv_ReadAllCtrlReg
                0x34000e6c       0x32 tmp/obj/gcc/can_freertos_customization/main.o
                0x34000e6c                TIC12400Drv_ReadAllCtrlReg
 .text.IoDrv_on
                0x34000e9e       0x2c tmp/obj/gcc/can_freertos_customization/main.o
                0x34000e9e                IoDrv_on
 *fill*         0x34000eca        0x2 
 .text.Task1_Function
                0x34000ecc       0x70 tmp/obj/gcc/can_freertos_customization/main.o
                0x34000ecc                Task1_Function
 .text.Task2_Function
                0x34000f3c       0x94 tmp/obj/gcc/can_freertos_customization/main.o
                0x34000f3c                Task2_Function
 .text.Task3_Function
                0x34000fd0       0x24 tmp/obj/gcc/can_freertos_customization/main.o
                0x34000fd0                Task3_Function
 .text.MonitorTask_Function
                0x34000ff4       0x38 tmp/obj/gcc/can_freertos_customization/main.o
                0x34000ff4                MonitorTask_Function
 .text.main     0x3400102c      0x130 tmp/obj/gcc/can_freertos_customization/main.o
                0x3400102c                main
 .text.OsIf_Timer_Dummy_GetCounter
                0x3400115c       0x10 tmp/obj/gcc/can_freertos_customization/OsIf_Timer.o
 .text.OsIf_Timer_Dummy_GetElapsed
                0x3400116c       0x16 tmp/obj/gcc/can_freertos_customization/OsIf_Timer.o
 .text.OsIf_Timer_Dummy_SetTimerFrequency
                0x34001182       0x14 tmp/obj/gcc/can_freertos_customization/OsIf_Timer.o
 .text.OsIf_Timer_Dummy_MicrosToTicks
                0x34001196       0x16 tmp/obj/gcc/can_freertos_customization/OsIf_Timer.o
 .text.OsIf_Init
                0x340011ac       0x14 tmp/obj/gcc/can_freertos_customization/OsIf_Timer.o
                0x340011ac                OsIf_Init
 .text.OsIf_GetCounter
                0x340011c0       0x34 tmp/obj/gcc/can_freertos_customization/OsIf_Timer.o
                0x340011c0                OsIf_GetCounter
 .text.OsIf_GetElapsed
                0x340011f4       0x3a tmp/obj/gcc/can_freertos_customization/OsIf_Timer.o
                0x340011f4                OsIf_GetElapsed
 .text.OsIf_SetTimerFrequency
                0x3400122e       0x30 tmp/obj/gcc/can_freertos_customization/OsIf_Timer.o
                0x3400122e                OsIf_SetTimerFrequency
 .text.OsIf_MicrosToTicks
                0x3400125e       0x3a tmp/obj/gcc/can_freertos_customization/OsIf_Timer.o
                0x3400125e                OsIf_MicrosToTicks
 .text.OsIf_Timer_System_Init
                0x34001298       0x3c tmp/obj/gcc/can_freertos_customization/OsIf_Timer_System.o
                0x34001298                OsIf_Timer_System_Init
 .text.OsIf_Timer_System_GetCounter
                0x340012d4       0x1e tmp/obj/gcc/can_freertos_customization/OsIf_Timer_System.o
                0x340012d4                OsIf_Timer_System_GetCounter
 .text.OsIf_Timer_System_GetElapsed
                0x340012f2       0x22 tmp/obj/gcc/can_freertos_customization/OsIf_Timer_System.o
                0x340012f2                OsIf_Timer_System_GetElapsed
 .text.OsIf_Timer_System_SetTimerFrequency
                0x34001314       0x28 tmp/obj/gcc/can_freertos_customization/OsIf_Timer_System.o
                0x34001314                OsIf_Timer_System_SetTimerFrequency
 .text.OsIf_Timer_System_MicrosToTicks
                0x3400133c       0x70 tmp/obj/gcc/can_freertos_customization/OsIf_Timer_System.o
                0x3400133c                OsIf_Timer_System_MicrosToTicks
 .text.OsIf_Timer_System_Internal_Init
                0x340013ac       0x34 tmp/obj/gcc/can_freertos_customization/OsIf_Timer_System_Internal_Systick.o
                0x340013ac                OsIf_Timer_System_Internal_Init
 .text.OsIf_Timer_System_Internal_GetCounter
                0x340013e0       0x1c tmp/obj/gcc/can_freertos_customization/OsIf_Timer_System_Internal_Systick.o
                0x340013e0                OsIf_Timer_System_Internal_GetCounter
 .text.OsIf_Timer_System_Internal_GetElapsed
                0x340013fc       0x54 tmp/obj/gcc/can_freertos_customization/OsIf_Timer_System_Internal_Systick.o
                0x340013fc                OsIf_Timer_System_Internal_GetElapsed
 .text.Det_Init
                0x34001450        0xe tmp/obj/gcc/can_freertos_customization/Det.o
                0x34001450                Det_Init
 *fill*         0x3400145e        0x2 
 .text.Det_ReportError
                0x34001460       0x68 tmp/obj/gcc/can_freertos_customization/Det.o
                0x34001460                Det_ReportError
 .text.Det_ReportRuntimeError
                0x340014c8       0x68 tmp/obj/gcc/can_freertos_customization/Det.o
                0x340014c8                Det_ReportRuntimeError
 .text.Det_ReportTransientFault
                0x34001530       0x68 tmp/obj/gcc/can_freertos_customization/Det.o
                0x34001530                Det_ReportTransientFault
 .text.Det_Start
                0x34001598        0xe tmp/obj/gcc/can_freertos_customization/Det.o
                0x34001598                Det_Start
 *fill*         0x340015a6        0x2 
 .text.Det_TestLastReportError
                0x340015a8       0xb4 tmp/obj/gcc/can_freertos_customization/Det_stub.o
                0x340015a8                Det_TestLastReportError
 .text.Det_TestLastReportRuntimeError
                0x3400165c       0xb4 tmp/obj/gcc/can_freertos_customization/Det_stub.o
                0x3400165c                Det_TestLastReportRuntimeError
 .text.Det_TestLastReportTransientFault
                0x34001710       0xb4 tmp/obj/gcc/can_freertos_customization/Det_stub.o
                0x34001710                Det_TestLastReportTransientFault
 .text.Det_TestNoError
                0x340017c4       0xac tmp/obj/gcc/can_freertos_customization/Det_stub.o
                0x340017c4                Det_TestNoError
 .text.Det_TestNoRuntimeError
                0x34001870       0xac tmp/obj/gcc/can_freertos_customization/Det_stub.o
                0x34001870                Det_TestNoRuntimeError
 .text.Det_TestNoTransientFault
                0x3400191c       0xac tmp/obj/gcc/can_freertos_customization/Det_stub.o
                0x3400191c                Det_TestNoTransientFault
 .text.Dem_SetEventStatus
                0x340019c8       0xd4 tmp/obj/gcc/can_freertos_customization/Dem.o
                0x340019c8                Dem_SetEventStatus
 .text.Dem_ReportErrorStatusPreExtData
                0x34001a9c      0x124 tmp/obj/gcc/can_freertos_customization/Dem.o
                0x34001a9c                Dem_ReportErrorStatusPreExtData
 .text.Dem_TestLastReportErrorStatus
                0x34001bc0      0x100 tmp/obj/gcc/can_freertos_customization/Dem_stub.o
                0x34001bc0                Dem_TestLastReportErrorStatus
 .text.Dem_TestNoError
                0x34001cc0       0x7c tmp/obj/gcc/can_freertos_customization/Dem_stub.o
                0x34001cc0                Dem_TestNoError
 .text.Dem_TestLastReportErrorStatusPreExtData
                0x34001d3c      0x174 tmp/obj/gcc/can_freertos_customization/Dem_stub.o
                0x34001d3c                Dem_TestLastReportErrorStatusPreExtData
 .text.Dem_ClearEvents
                0x34001eb0       0x24 tmp/obj/gcc/can_freertos_customization/Dem_stub.o
                0x34001eb0                Dem_ClearEvents
 .text.Dem_GetEvent
                0x34001ed4       0x70 tmp/obj/gcc/can_freertos_customization/Dem_stub.o
                0x34001ed4                Dem_GetEvent
 .text.Dem_GetEventCount
                0x34001f44       0x24 tmp/obj/gcc/can_freertos_customization/Dem_stub.o
                0x34001f44                Dem_GetEventCount
 .text.Dem_BufferOverflow
                0x34001f68       0x2c tmp/obj/gcc/can_freertos_customization/Dem_stub.o
                0x34001f68                Dem_BufferOverflow
 .text.EcuM_SetWakeupEvent
                0x34001f94       0x20 tmp/obj/gcc/can_freertos_customization/EcuM.o
                0x34001f94                EcuM_SetWakeupEvent
 .text.EcuM_ValidateWakeupEvent
                0x34001fb4       0x14 tmp/obj/gcc/can_freertos_customization/EcuM.o
                0x34001fb4                EcuM_ValidateWakeupEvent
 .text.EcuM_CheckWakeup
                0x34001fc8       0x14 tmp/obj/gcc/can_freertos_customization/EcuM.o
                0x34001fc8                EcuM_CheckWakeup
 .text.Clock_Ip_NotificatonsEmptyCallback
                0x34001fdc       0x1c tmp/obj/gcc/can_freertos_customization/Clock_Ip.o
 .text.Clock_Ip_UpdateDriverContext
                0x34001ff8       0x2c tmp/obj/gcc/can_freertos_customization/Clock_Ip.o
 .text.Clock_Ip_CallEmptyCallbacks
                0x34002024       0xcc tmp/obj/gcc/can_freertos_customization/Clock_Ip.o
 .text.Clock_Ip_ResetClockConfiguration
                0x340020f0      0x1c4 tmp/obj/gcc/can_freertos_customization/Clock_Ip.o
 .text.Clock_Ip_Init
                0x340022b4       0x44 tmp/obj/gcc/can_freertos_customization/Clock_Ip.o
                0x340022b4                Clock_Ip_Init
 .text.Clock_Ip_InitClock
                0x340022f8      0x6d0 tmp/obj/gcc/can_freertos_customization/Clock_Ip.o
                0x340022f8                Clock_Ip_InitClock
 .text.Clock_Ip_GetPllStatus
                0x340029c8      0x100 tmp/obj/gcc/can_freertos_customization/Clock_Ip.o
                0x340029c8                Clock_Ip_GetPllStatus
 .text.Clock_Ip_DistributePll
                0x34002ac8      0x194 tmp/obj/gcc/can_freertos_customization/Clock_Ip.o
                0x34002ac8                Clock_Ip_DistributePll
 .text.Clock_Ip_DisableClockMonitor
                0x34002c5c       0x50 tmp/obj/gcc/can_freertos_customization/Clock_Ip.o
                0x34002c5c                Clock_Ip_DisableClockMonitor
 .text.Clock_Ip_GetClockMonitorStatus
                0x34002cac       0x50 tmp/obj/gcc/can_freertos_customization/Clock_Ip.o
                0x34002cac                Clock_Ip_GetClockMonitorStatus
 .text.Clock_Ip_ClearClockMonitorStatus
                0x34002cfc       0x50 tmp/obj/gcc/can_freertos_customization/Clock_Ip.o
                0x34002cfc                Clock_Ip_ClearClockMonitorStatus
 .text.Clock_Ip_InstallNotificationsCallback
                0x34002d4c       0x20 tmp/obj/gcc/can_freertos_customization/Clock_Ip.o
                0x34002d4c                Clock_Ip_InstallNotificationsCallback
 .text.Clock_Ip_DisableModuleClock
                0x34002d6c       0x48 tmp/obj/gcc/can_freertos_customization/Clock_Ip.o
                0x34002d6c                Clock_Ip_DisableModuleClock
 .text.Clock_Ip_EnableModuleClock
                0x34002db4       0x48 tmp/obj/gcc/can_freertos_customization/Clock_Ip.o
                0x34002db4                Clock_Ip_EnableModuleClock
 .text.Clock_Ip_ReportClockErrors
                0x34002dfc       0x28 tmp/obj/gcc/can_freertos_customization/Clock_Ip.o
                0x34002dfc                Clock_Ip_ReportClockErrors
 .text.Clock_Ip_StartTimeout
                0x34002e24       0x36 tmp/obj/gcc/can_freertos_customization/Clock_Ip.o
                0x34002e24                Clock_Ip_StartTimeout
 .text.Clock_Ip_TimeoutExpired
                0x34002e5a       0x38 tmp/obj/gcc/can_freertos_customization/Clock_Ip.o
                0x34002e5a                Clock_Ip_TimeoutExpired
 *fill*         0x34002e92        0x2 
 .text.Clock_Ip_GetConfiguredFrequencyValue
                0x34002e94       0x68 tmp/obj/gcc/can_freertos_customization/Clock_Ip.o
                0x34002e94                Clock_Ip_GetConfiguredFrequencyValue
 .text.Clock_Ip_Callback_DividerEmpty
                0x34002efc       0x14 tmp/obj/gcc/can_freertos_customization/Clock_Ip_Divider.o
 .text.Clock_Ip_SetCgmXDeDivStatWithoutPhase
                0x34002f10      0x1f0 tmp/obj/gcc/can_freertos_customization/Clock_Ip_Divider.o
 .text.Clock_Ip_SetCgmXDeDivWithoutPhase
                0x34003100      0x178 tmp/obj/gcc/can_freertos_customization/Clock_Ip_Divider.o
 .text.Clock_Ip_SetPlldigPll0divDeDivOutput
                0x34003278       0xb8 tmp/obj/gcc/can_freertos_customization/Clock_Ip_Divider.o
 .text.Clock_Ip_Callback_DividerTriggerEmpty
                0x34003330       0x14 tmp/obj/gcc/can_freertos_customization/Clock_Ip_DividerTrigger.o
 .text.Clock_Ip_ExternalOscillatorEmpty
                0x34003344       0x14 tmp/obj/gcc/can_freertos_customization/Clock_Ip_ExtOsc.o
 .text.Clock_Ip_DisableClockIpExternalOscillatorEmpty
                0x34003358       0x16 tmp/obj/gcc/can_freertos_customization/Clock_Ip_ExtOsc.o
 *fill*         0x3400336e        0x2 
 .text.Clock_Ip_ResetFxoscOsconBypEocvGmSel
                0x34003370       0x48 tmp/obj/gcc/can_freertos_customization/Clock_Ip_ExtOsc.o
 .text.Clock_Ip_SetFxoscOsconBypEocvGmSel
                0x340033b8       0x70 tmp/obj/gcc/can_freertos_customization/Clock_Ip_ExtOsc.o
 .text.Clock_Ip_CompleteFxoscOsconBypEocvGmSel
                0x34003428       0xb4 tmp/obj/gcc/can_freertos_customization/Clock_Ip_ExtOsc.o
 .text.Clock_Ip_DisableFxoscOsconBypEocvGmSel
                0x340034dc       0x48 tmp/obj/gcc/can_freertos_customization/Clock_Ip_ExtOsc.o
 .text.Clock_Ip_EnableFxoscOsconBypEocvGmSel
                0x34003524       0x50 tmp/obj/gcc/can_freertos_customization/Clock_Ip_ExtOsc.o
 .text.Clock_Ip_CallbackFracDivEmpty
                0x34003574       0x14 tmp/obj/gcc/can_freertos_customization/Clock_Ip_FracDiv.o
 .text.Clock_Ip_CallbackFracDivEmptyComplete
                0x34003588       0x18 tmp/obj/gcc/can_freertos_customization/Clock_Ip_FracDiv.o
 .text.Clock_Ip_ResetDfsMfiMfn
                0x340035a0       0x64 tmp/obj/gcc/can_freertos_customization/Clock_Ip_FracDiv.o
 .text.Clock_Ip_SetDfsMfiMfn
                0x34003604       0xac tmp/obj/gcc/can_freertos_customization/Clock_Ip_FracDiv.o
 .text.Clock_Ip_CompleteDfsMfiMfn
                0x340036b0       0xdc tmp/obj/gcc/can_freertos_customization/Clock_Ip_FracDiv.o
 .text.Clock_Ip_ClockSetGateEmpty
                0x3400378c       0x14 tmp/obj/gcc/can_freertos_customization/Clock_Ip_Gate.o
 .text.Clock_Ip_ClockUpdateGateEmpty
                0x340037a0       0x1c tmp/obj/gcc/can_freertos_customization/Clock_Ip_Gate.o
 .text.Clock_Ip_ClockSetGateMcMePartitionCollectionClockRequest
                0x340037bc      0x200 tmp/obj/gcc/can_freertos_customization/Clock_Ip_Gate.o
 .text.Clock_Ip_ClockUpdateGateMcMePartitionCollectionClockRequest
                0x340039bc       0x36 tmp/obj/gcc/can_freertos_customization/Clock_Ip_Gate.o
 .text.Clock_Ip_InternalOscillatorEmpty
                0x340039f2       0x14 tmp/obj/gcc/can_freertos_customization/Clock_Ip_IntOsc.o
 .text.Clock_Ip_InternalOscillatorEmpty_Disable
                0x34003a06       0x16 tmp/obj/gcc/can_freertos_customization/Clock_Ip_IntOsc.o
 .text.Mcu_Cmu_ClockFail_IRQHandler
                0x34003a1c        0xc tmp/obj/gcc/can_freertos_customization/Clock_Ip_Irq.o
                0x34003a1c                Mcu_Cmu_ClockFail_IRQHandler
 .text.Clock_Ip_ClockMonitorEmpty
                0x34003a28       0x14 tmp/obj/gcc/can_freertos_customization/Clock_Ip_Monitor.o
 .text.Clock_Ip_ClockMonitorEmpty_Disable
                0x34003a3c       0x16 tmp/obj/gcc/can_freertos_customization/Clock_Ip_Monitor.o
 .text.Clock_Ip_ClockMonitorEmpty_ClearStatus
                0x34003a52       0x16 tmp/obj/gcc/can_freertos_customization/Clock_Ip_Monitor.o
 .text.Clock_Ip_ClockMonitorEmpty_GetStatus
                0x34003a68       0x18 tmp/obj/gcc/can_freertos_customization/Clock_Ip_Monitor.o
 .text.Clock_Ip_DisableCmuFcFceRefCntLfrefHfref
                0x34003a80       0xe4 tmp/obj/gcc/can_freertos_customization/Clock_Ip_Monitor.o
 .text.Clock_Ip_ResetCmuFcFceRefCntLfrefHfref
                0x34003b64       0x1a tmp/obj/gcc/can_freertos_customization/Clock_Ip_Monitor.o
 *fill*         0x34003b7e        0x2 
 .text.Clock_Ip_SetCmuFcFceRefCntLfrefHfref
                0x34003b80      0x278 tmp/obj/gcc/can_freertos_customization/Clock_Ip_Monitor.o
 .text.Clock_Ip_ClearStatusCmuFcFceRefCntLfrefHfref
                0x34003df8       0x4c tmp/obj/gcc/can_freertos_customization/Clock_Ip_Monitor.o
 .text.Clock_Ip_GetStatusCmuFcFceRefCntLfrefHfref
                0x34003e44       0x90 tmp/obj/gcc/can_freertos_customization/Clock_Ip_Monitor.o
 .text.Clock_Ip_EnableCmuFcFceRefCntLfrefHfref
                0x34003ed4       0x60 tmp/obj/gcc/can_freertos_customization/Clock_Ip_Monitor.o
 .text.Clock_Ip_CMU_GetInterruptStatus
                0x34003f34       0x2c tmp/obj/gcc/can_freertos_customization/Clock_Ip_Monitor.o
                0x34003f34                Clock_Ip_CMU_GetInterruptStatus
 .text.Clock_Ip_CMU_ClockFailInt
                0x34003f60       0x90 tmp/obj/gcc/can_freertos_customization/Clock_Ip_Monitor.o
                0x34003f60                Clock_Ip_CMU_ClockFailInt
 .text.Clock_Ip_CallbackPllEmpty
                0x34003ff0       0x14 tmp/obj/gcc/can_freertos_customization/Clock_Ip_Pll.o
 .text.Clock_Ip_CallbackPllEmptyComplete
                0x34004004       0x18 tmp/obj/gcc/can_freertos_customization/Clock_Ip_Pll.o
 .text.Clock_Ip_CallbackPllEmptyDisable
                0x3400401c       0x16 tmp/obj/gcc/can_freertos_customization/Clock_Ip_Pll.o
 *fill*         0x34004032        0x2 
 .text.Clock_Ip_ResetPlldigRdivMfiMfnSdmenSsscgbypSpreadctlStepnoStepsize
                0x34004034       0x48 tmp/obj/gcc/can_freertos_customization/Clock_Ip_Pll.o
 .text.Clock_Ip_SetPlldigRdivMfiMfnSdmenSsscgbypSpreadctlStepnoStepsize
                0x3400407c       0xf0 tmp/obj/gcc/can_freertos_customization/Clock_Ip_Pll.o
 .text.Clock_Ip_CompletePlldigRdivMfiMfnSdmenSsscgbypSpreadctlStepnoStepsize
                0x3400416c       0xa0 tmp/obj/gcc/can_freertos_customization/Clock_Ip_Pll.o
 .text.Clock_Ip_EnablePlldigRdivMfiMfnSdmenSsscgbypSpreadctlStepnoStepsize
                0x3400420c       0x50 tmp/obj/gcc/can_freertos_customization/Clock_Ip_Pll.o
 .text.Clock_Ip_ResetPlldigRdivMfiMfnSdmen
                0x3400425c       0x48 tmp/obj/gcc/can_freertos_customization/Clock_Ip_Pll.o
 .text.Clock_Ip_SetPlldigRdivMfiMfnSdmen
                0x340042a4       0xac tmp/obj/gcc/can_freertos_customization/Clock_Ip_Pll.o
 .text.Clock_Ip_CompletePlldigRdivMfiMfnSdmen
                0x34004350       0xa0 tmp/obj/gcc/can_freertos_customization/Clock_Ip_Pll.o
 .text.Clock_Ip_EnablePlldigRdivMfiMfnSdmen
                0x340043f0       0x50 tmp/obj/gcc/can_freertos_customization/Clock_Ip_Pll.o
 .text.Clock_Ip_ProgressiveFrequencyClockSwitchEmpty
                0x34004440       0x14 tmp/obj/gcc/can_freertos_customization/Clock_Ip_ProgFreqSwitch.o
 .text.Clock_Ip_CgmXPcfsSdurDivcDiveDivs
                0x34004454      0x298 tmp/obj/gcc/can_freertos_customization/Clock_Ip_ProgFreqSwitch.o
 .text.Clock_Ip_CallbackSelectorEmpty
                0x340046ec       0x14 tmp/obj/gcc/can_freertos_customization/Clock_Ip_Selector.o
 .text.Clock_Ip_ResetCgmXCscCssClkswSwip
                0x34004700       0xc4 tmp/obj/gcc/can_freertos_customization/Clock_Ip_Selector.o
 .text.Clock_Ip_SetCgmXCscCssClkswSwip
                0x340047c4      0x27c tmp/obj/gcc/can_freertos_customization/Clock_Ip_Selector.o
 .text.Clock_Ip_ResetCgmXCscCssClkswRampupRampdownSwip
                0x34004a40       0xc4 tmp/obj/gcc/can_freertos_customization/Clock_Ip_Selector.o
 .text.Clock_Ip_SetCgmXCscCssClkswRampupRampdownSwip
                0x34004b04      0x27c tmp/obj/gcc/can_freertos_customization/Clock_Ip_Selector.o
 .text.Clock_Ip_ResetCgmXCscCssCsGrip
                0x34004d80       0x14 tmp/obj/gcc/can_freertos_customization/Clock_Ip_Selector.o
 .text.Clock_Ip_SetCgmXCscCssCsGrip
                0x34004d94      0x230 tmp/obj/gcc/can_freertos_customization/Clock_Ip_Selector.o
 .text.Clock_Ip_ResetGenctrl1Ctrl
                0x34004fc4       0x16 tmp/obj/gcc/can_freertos_customization/Clock_Ip_Selector.o
 .text.Clock_Ip_SetGenctrl1Ctrl
                0x34004fda       0x16 tmp/obj/gcc/can_freertos_customization/Clock_Ip_Selector.o
 .text.Clock_Ip_SetRtcRtccClksel
                0x34004ff0       0x16 tmp/obj/gcc/can_freertos_customization/Clock_Ip_Selector.o
 *fill*         0x34005006        0x2 
 .text.Clock_Ip_ConfigureResetGenCtrl1
                0x34005008       0x4c tmp/obj/gcc/can_freertos_customization/Clock_Ip_Selector.o
                0x34005008                Clock_Ip_ConfigureResetGenCtrl1
 .text.Clock_Ip_ConfigureSetGenCtrl1
                0x34005054       0x7c tmp/obj/gcc/can_freertos_customization/Clock_Ip_Selector.o
                0x34005054                Clock_Ip_ConfigureSetGenCtrl1
 .text.Clock_Ip_SetRtcRtccClksel_TrustedCall
                0x340050d0       0x4c tmp/obj/gcc/can_freertos_customization/Clock_Ip_Selector.o
                0x340050d0                Clock_Ip_SetRtcRtccClksel_TrustedCall
 .text.Clock_Ip_PowerClockIpModules
                0x3400511c      0x1d4 tmp/obj/gcc/can_freertos_customization/Clock_Ip_Specific.o
 .text.Clock_Ip_McMeEnterKey
                0x340052f0       0x24 tmp/obj/gcc/can_freertos_customization/Clock_Ip_Specific.o
                0x340052f0                Clock_Ip_McMeEnterKey
 .text.Clock_Ip_SpecificPeripheralClockInitialization
                0x34005314       0x14 tmp/obj/gcc/can_freertos_customization/Clock_Ip_Specific.o
                0x34005314                Clock_Ip_SpecificPeripheralClockInitialization
 .text.Clock_Ip_SpecificPlatformInitClock
                0x34005328      0x230 tmp/obj/gcc/can_freertos_customization/Clock_Ip_Specific.o
                0x34005328                Clock_Ip_SpecificPlatformInitClock
 .text.Clock_Ip_ClockInitializeObjects
                0x34005558        0xe tmp/obj/gcc/can_freertos_customization/Clock_Ip_Specific.o
                0x34005558                Clock_Ip_ClockInitializeObjects
 .text.Clock_Ip_ClockPowerModeChangeNotification
                0x34005566       0x1c tmp/obj/gcc/can_freertos_customization/Clock_Ip_Specific.o
                0x34005566                Clock_Ip_ClockPowerModeChangeNotification
 *fill*         0x34005582        0x2 
 .text.Mcu_Init
                0x34005584       0x94 tmp/obj/gcc/can_freertos_customization/Mcu.o
                0x34005584                Mcu_Init
 .text.Mcu_InitRamSection
                0x34005618       0x1a tmp/obj/gcc/can_freertos_customization/Mcu.o
                0x34005618                Mcu_InitRamSection
 *fill*         0x34005632        0x2 
 .text.Mcu_InitClock
                0x34005634       0x40 tmp/obj/gcc/can_freertos_customization/Mcu.o
                0x34005634                Mcu_InitClock
 .text.Mcu_SetMode
                0x34005674       0x38 tmp/obj/gcc/can_freertos_customization/Mcu.o
                0x34005674                Mcu_SetMode
 .text.Mcu_DistributePllClock
                0x340056ac       0x1c tmp/obj/gcc/can_freertos_customization/Mcu.o
                0x340056ac                Mcu_DistributePllClock
 .text.Mcu_GetPllStatus
                0x340056c8       0x18 tmp/obj/gcc/can_freertos_customization/Mcu.o
                0x340056c8                Mcu_GetPllStatus
 .text.Mcu_GetResetReason
                0x340056e0       0x18 tmp/obj/gcc/can_freertos_customization/Mcu.o
                0x340056e0                Mcu_GetResetReason
 .text.Mcu_GetResetRawValue
                0x340056f8       0x16 tmp/obj/gcc/can_freertos_customization/Mcu.o
                0x340056f8                Mcu_GetResetRawValue
 .text.Mcu_SleepOnExit
                0x3400570e       0x1a tmp/obj/gcc/can_freertos_customization/Mcu.o
                0x3400570e                Mcu_SleepOnExit
 .text.Mcu_Ipw_Init
                0x34005728       0x16 tmp/obj/gcc/can_freertos_customization/Mcu_Ipw.o
                0x34005728                Mcu_Ipw_Init
 .text.Mcu_Ipw_InitClock
                0x3400573e       0x16 tmp/obj/gcc/can_freertos_customization/Mcu_Ipw.o
                0x3400573e                Mcu_Ipw_InitClock
 .text.Mcu_Ipw_DistributePllClock
                0x34005754        0xc tmp/obj/gcc/can_freertos_customization/Mcu_Ipw.o
                0x34005754                Mcu_Ipw_DistributePllClock
 .text.Mcu_Ipw_GetPllStatus
                0x34005760       0x32 tmp/obj/gcc/can_freertos_customization/Mcu_Ipw.o
                0x34005760                Mcu_Ipw_GetPllStatus
 .text.Mcu_Ipw_SetMode
                0x34005792       0x16 tmp/obj/gcc/can_freertos_customization/Mcu_Ipw.o
                0x34005792                Mcu_Ipw_SetMode
 .text.Mcu_Ipw_GetResetReason
                0x340057a8       0x1c tmp/obj/gcc/can_freertos_customization/Mcu_Ipw.o
                0x340057a8                Mcu_Ipw_GetResetReason
 .text.Mcu_Ipw_GetResetRawValue
                0x340057c4       0x16 tmp/obj/gcc/can_freertos_customization/Mcu_Ipw.o
                0x340057c4                Mcu_Ipw_GetResetRawValue
 .text.Mcu_Ipw_SleepOnExit
                0x340057da       0x22 tmp/obj/gcc/can_freertos_customization/Mcu_Ipw.o
                0x340057da                Mcu_Ipw_SleepOnExit
 .text.Power_Ip_ConfigPartCoreCofbReset
                0x340057fc       0x24 tmp/obj/gcc/can_freertos_customization/Power_Ip.o
 .text.Power_Ip_OnOffPartCoreCofb
                0x34005820       0x5c tmp/obj/gcc/can_freertos_customization/Power_Ip.o
 .text.Power_Ip_SetMode
                0x3400587c       0x4e tmp/obj/gcc/can_freertos_customization/Power_Ip.o
                0x3400587c                Power_Ip_SetMode
 .text.Power_Ip_GetResetReason
                0x340058ca       0x1c tmp/obj/gcc/can_freertos_customization/Power_Ip.o
                0x340058ca                Power_Ip_GetResetReason
 .text.Power_Ip_GetResetRawValue
                0x340058e6       0x16 tmp/obj/gcc/can_freertos_customization/Power_Ip.o
                0x340058e6                Power_Ip_GetResetRawValue
 .text.Power_Ip_Init
                0x340058fc       0x24 tmp/obj/gcc/can_freertos_customization/Power_Ip.o
                0x340058fc                Power_Ip_Init
 .text.Power_Ip_InstallNotificationsCallback
                0x34005920       0x20 tmp/obj/gcc/can_freertos_customization/Power_Ip.o
                0x34005920                Power_Ip_InstallNotificationsCallback
 .text.Power_Ip_CM7_DisableSleepOnExit
                0x34005940       0x22 tmp/obj/gcc/can_freertos_customization/Power_Ip_CortexM7.o
                0x34005940                Power_Ip_CM7_DisableSleepOnExit
 .text.Power_Ip_CM7_EnableSleepOnExit
                0x34005962       0x22 tmp/obj/gcc/can_freertos_customization/Power_Ip_CortexM7.o
                0x34005962                Power_Ip_CM7_EnableSleepOnExit
 .text.Power_Ip_CortexM_WarmReset
                0x34005984       0x24 tmp/obj/gcc/can_freertos_customization/Power_Ip_CortexM7.o
                0x34005984                Power_Ip_CortexM_WarmReset
 .text.Power_Ip_CM7_DisableDeepSleep
                0x340059a8       0x22 tmp/obj/gcc/can_freertos_customization/Power_Ip_CortexM7.o
                0x340059a8                Power_Ip_CM7_DisableDeepSleep
 .text.Power_Ip_CM7_EnableDeepSleep
                0x340059ca       0x22 tmp/obj/gcc/can_freertos_customization/Power_Ip_CortexM7.o
                0x340059ca                Power_Ip_CM7_EnableDeepSleep
 .text.Power_Ip_MC_ME_WriteControlKeys
                0x340059ec       0x28 tmp/obj/gcc/can_freertos_customization/Power_Ip_MC_ME.o
 .text.Power_Ip_MC_ME_TriggerModeUpdate
                0x34005a14       0x18 tmp/obj/gcc/can_freertos_customization/Power_Ip_MC_ME.o
 .text.Power_Ip_MC_ME_TriggerPartitionUpdate
                0x34005a2c       0x58 tmp/obj/gcc/can_freertos_customization/Power_Ip_MC_ME.o
 .text.Power_Ip_MC_ME_TriggerCofbUpdate
                0x34005a84       0x54 tmp/obj/gcc/can_freertos_customization/Power_Ip_MC_ME.o
 .text.Power_Ip_MC_ME_TriggerCoreUpdate
                0x34005ad8       0x64 tmp/obj/gcc/can_freertos_customization/Power_Ip_MC_ME.o
 .text.Power_Ip_MC_ME_ConfigurePartitionClock
                0x34005b3c       0xdc tmp/obj/gcc/can_freertos_customization/Power_Ip_MC_ME.o
 .text.Power_Ip_MC_ME_ConfigurePartitionOutputSafe
                0x34005c18       0xdc tmp/obj/gcc/can_freertos_customization/Power_Ip_MC_ME.o
 .text.Power_Ip_MC_ME_ConfigureCOFB
                0x34005cf4       0xb4 tmp/obj/gcc/can_freertos_customization/Power_Ip_MC_ME.o
 .text.Power_Ip_MC_ME_ConfigureCore
                0x34005da8      0x140 tmp/obj/gcc/can_freertos_customization/Power_Ip_MC_ME.o
 .text.Power_Ip_MC_ME_ConfigureCorePartition1
                0x34005ee8       0xc0 tmp/obj/gcc/can_freertos_customization/Power_Ip_MC_ME.o
 .text.Power_Ip_MC_ME_ConfigCoreCOFBClock
                0x34005fa8      0x124 tmp/obj/gcc/can_freertos_customization/Power_Ip_MC_ME.o
                0x34005fa8                Power_Ip_MC_ME_ConfigCoreCOFBClock
 .text.Power_Ip_MC_ME_EnablePartitionClock
                0x340060cc       0x5c tmp/obj/gcc/can_freertos_customization/Power_Ip_MC_ME.o
                0x340060cc                Power_Ip_MC_ME_EnablePartitionClock
 .text.Power_Ip_MC_ME_DisablePartitionClock
                0x34006128       0x5c tmp/obj/gcc/can_freertos_customization/Power_Ip_MC_ME.o
                0x34006128                Power_Ip_MC_ME_DisablePartitionClock
 .text.Power_Ip_MC_ME_EnablePartitionOutputSafe
                0x34006184       0x5c tmp/obj/gcc/can_freertos_customization/Power_Ip_MC_ME.o
                0x34006184                Power_Ip_MC_ME_EnablePartitionOutputSafe
 .text.Power_Ip_MC_ME_DisablePartitionOutputSafe
                0x340061e0       0x5c tmp/obj/gcc/can_freertos_customization/Power_Ip_MC_ME.o
                0x340061e0                Power_Ip_MC_ME_DisablePartitionOutputSafe
 .text.Power_Ip_MC_ME_SocTriggerResetEvent
                0x3400623c       0x38 tmp/obj/gcc/can_freertos_customization/Power_Ip_MC_ME.o
                0x3400623c                Power_Ip_MC_ME_SocTriggerResetEvent
 .text.Power_Ip_MC_RGM_ClearFesResetFlags
                0x34006274       0x84 tmp/obj/gcc/can_freertos_customization/Power_Ip_MC_RGM.o
 .text.Power_Ip_MC_RGM_ClearDesResetFlags
                0x340062f8       0x84 tmp/obj/gcc/can_freertos_customization/Power_Ip_MC_RGM.o
 .text.Power_Ip_MC_RGM_ReleaseDomainReset
                0x3400637c       0x38 tmp/obj/gcc/can_freertos_customization/Power_Ip_MC_RGM.o
 .text.Power_Ip_MC_RGM_AssertDomainReset
                0x340063b4       0x38 tmp/obj/gcc/can_freertos_customization/Power_Ip_MC_RGM.o
 .text.Power_Ip_MC_RGM_ConfigureResetDomainController
                0x340063ec       0xfc tmp/obj/gcc/can_freertos_customization/Power_Ip_MC_RGM.o
 .text.Power_Ip_MC_RGM_ConfigureCOFB
                0x340064e8       0x70 tmp/obj/gcc/can_freertos_customization/Power_Ip_MC_RGM.o
 .text.Power_Ip_MC_RGM_CheckConfigureCOFB
                0x34006558       0x94 tmp/obj/gcc/can_freertos_customization/Power_Ip_MC_RGM.o
 .text.Power_Ip_MC_RGM_ConfigureCore
                0x340065ec       0x60 tmp/obj/gcc/can_freertos_customization/Power_Ip_MC_RGM.o
 .text.Power_Ip_MC_RGM_CheckConfigureCore
                0x3400664c       0x88 tmp/obj/gcc/can_freertos_customization/Power_Ip_MC_RGM.o
 .text.Power_Ip_MC_RGM_ResetInit
                0x340066d4       0x70 tmp/obj/gcc/can_freertos_customization/Power_Ip_MC_RGM.o
                0x340066d4                Power_Ip_MC_RGM_ResetInit
 .text.Power_Ip_MC_RGM_ModeConfig
                0x34006744       0xd2 tmp/obj/gcc/can_freertos_customization/Power_Ip_MC_RGM.o
                0x34006744                Power_Ip_MC_RGM_ModeConfig
 .text.Power_Ip_MC_RGM_CheckModeConfig
                0x34006816       0xd2 tmp/obj/gcc/can_freertos_customization/Power_Ip_MC_RGM.o
                0x34006816                Power_Ip_MC_RGM_CheckModeConfig
 .text.Power_Ip_MC_RGM_EnableResetDomain
                0x340068e8       0x6e tmp/obj/gcc/can_freertos_customization/Power_Ip_MC_RGM.o
                0x340068e8                Power_Ip_MC_RGM_EnableResetDomain
 .text.Power_Ip_MC_RGM_DisableResetDomain
                0x34006956       0x6e tmp/obj/gcc/can_freertos_customization/Power_Ip_MC_RGM.o
                0x34006956                Power_Ip_MC_RGM_DisableResetDomain
 .text.Power_Ip_MC_RGM_CheckResetReason
                0x340069c4       0x9c tmp/obj/gcc/can_freertos_customization/Power_Ip_MC_RGM.o
 .text.Power_Ip_MC_RGM_GetResetReason
                0x34006a60       0xa4 tmp/obj/gcc/can_freertos_customization/Power_Ip_MC_RGM.o
                0x34006a60                Power_Ip_MC_RGM_GetResetReason
 .text.Power_Ip_MC_RGM_GetResetRawValue
                0x34006b04      0x110 tmp/obj/gcc/can_freertos_customization/Power_Ip_MC_RGM.o
                0x34006b04                Power_Ip_MC_RGM_GetResetRawValue
 .text.Power_Ip_MSCM_GetPersonality
                0x34006c14       0x44 tmp/obj/gcc/can_freertos_customization/Power_Ip_MSCM.o
                0x34006c14                Power_Ip_MSCM_GetPersonality
 .text.Power_Ip_PMC_PowerInit
                0x34006c58       0x20 tmp/obj/gcc/can_freertos_customization/Power_Ip_PMC.o
                0x34006c58                Power_Ip_PMC_PowerInit
 .text.Power_Ip_ReportPowerErrors
                0x34006c78       0x28 tmp/obj/gcc/can_freertos_customization/Power_Ip_Private.o
                0x34006c78                Power_Ip_ReportPowerErrors
 .text.Power_Ip_ReportPowerErrorsEmptyCallback
                0x34006ca0       0x1c tmp/obj/gcc/can_freertos_customization/Power_Ip_Private.o
                0x34006ca0                Power_Ip_ReportPowerErrorsEmptyCallback
 .text.Power_Ip_StartTimeout
                0x34006cbc       0x36 tmp/obj/gcc/can_freertos_customization/Power_Ip_Private.o
                0x34006cbc                Power_Ip_StartTimeout
 .text.Power_Ip_TimeoutExpired
                0x34006cf2       0x38 tmp/obj/gcc/can_freertos_customization/Power_Ip_Private.o
                0x34006cf2                Power_Ip_TimeoutExpired
 *fill*         0x34006d2a        0x2 
 .text.Ram_Ip_InitRamSection
                0x34006d2c      0x1ac tmp/obj/gcc/can_freertos_customization/Ram_Ip.o
                0x34006d2c                Ram_Ip_InitRamSection
 .text.Port_Init
                0x34006ed8       0x2c tmp/obj/gcc/can_freertos_customization/Port.o
                0x34006ed8                Port_Init
 .text.Port_SetPinDirection
                0x34006f04       0x28 tmp/obj/gcc/can_freertos_customization/Port.o
                0x34006f04                Port_SetPinDirection
 .text.Port_SetPinMode
                0x34006f2c       0x28 tmp/obj/gcc/can_freertos_customization/Port.o
                0x34006f2c                Port_SetPinMode
 .text.Port_RefreshPortDirection
                0x34006f54       0x18 tmp/obj/gcc/can_freertos_customization/Port.o
                0x34006f54                Port_RefreshPortDirection
 .text.Port_GetVersionInfo
                0x34006f6c       0x32 tmp/obj/gcc/can_freertos_customization/Port.o
                0x34006f6c                Port_GetVersionInfo
 *fill*         0x34006f9e        0x2 
 .text.Port_Ipw_Init_UnusedPins
                0x34006fa0       0x9c tmp/obj/gcc/can_freertos_customization/Port_Ipw.o
 .text.Port_Ipw_GetIndexForInoutEntry
                0x3400703c       0x78 tmp/obj/gcc/can_freertos_customization/Port_Ipw.o
 .text.Port_Ipw_SetMode
                0x340070b4       0xc8 tmp/obj/gcc/can_freertos_customization/Port_Ipw.o
 .text.Port_Ipw_SetInoutMode
                0x3400717c       0xc8 tmp/obj/gcc/can_freertos_customization/Port_Ipw.o
 .text.Port_Ipw_SetInputMode
                0x34007244       0xd4 tmp/obj/gcc/can_freertos_customization/Port_Ipw.o
 .text.Port_Ipw_SetGpioMode
                0x34007318       0xbc tmp/obj/gcc/can_freertos_customization/Port_Ipw.o
 .text.Port_Ipw_SetOnlyInputMode
                0x340073d4       0x64 tmp/obj/gcc/can_freertos_customization/Port_Ipw.o
 .text.Port_Ipw_SetAltMode
                0x34007438       0x68 tmp/obj/gcc/can_freertos_customization/Port_Ipw.o
 .text.Port_Ipw_Init
                0x340074a0       0xa0 tmp/obj/gcc/can_freertos_customization/Port_Ipw.o
                0x340074a0                Port_Ipw_Init
 .text.Port_Ipw_SetPinDirection
                0x34007540       0xd4 tmp/obj/gcc/can_freertos_customization/Port_Ipw.o
                0x34007540                Port_Ipw_SetPinDirection
 .text.Port_Ipw_SetPinMode
                0x34007614       0xac tmp/obj/gcc/can_freertos_customization/Port_Ipw.o
                0x34007614                Port_Ipw_SetPinMode
 .text.Port_Ipw_SetGpioPadOutput
                0x340076c0       0x78 tmp/obj/gcc/can_freertos_customization/Port_Ipw.o
                0x340076c0                Port_Ipw_SetGpioPadOutput
 .text.Port_Ipw_RefreshPortDirection
                0x34007738      0x100 tmp/obj/gcc/can_freertos_customization/Port_Ipw.o
                0x34007738                Port_Ipw_RefreshPortDirection
 .text.Siul2_Port_Ip_PinInit
                0x34007838      0x118 tmp/obj/gcc/can_freertos_customization/Siul2_Port_Ip.o
 .text.Siul2_Port_Ip_WriteIMCRConfiguration
                0x34007950       0x94 tmp/obj/gcc/can_freertos_customization/Siul2_Port_Ip.o
 .text.Siul2_Port_Ip_GetMSCRConfiguration
                0x340079e4       0xd0 tmp/obj/gcc/can_freertos_customization/Siul2_Port_Ip.o
 .text.Siul2_Port_Ip_Init
                0x34007ab4       0x54 tmp/obj/gcc/can_freertos_customization/Siul2_Port_Ip.o
                0x34007ab4                Siul2_Port_Ip_Init
 .text.Siul2_Port_Ip_SetPullSel
                0x34007b08       0xa8 tmp/obj/gcc/can_freertos_customization/Siul2_Port_Ip.o
                0x34007b08                Siul2_Port_Ip_SetPullSel
 .text.Siul2_Port_Ip_SetOutputBuffer
                0x34007bb0       0x8a tmp/obj/gcc/can_freertos_customization/Siul2_Port_Ip.o
                0x34007bb0                Siul2_Port_Ip_SetOutputBuffer
 *fill*         0x34007c3a        0x2 
 .text.Siul2_Port_Ip_SetInputBuffer
                0x34007c3c       0xcc tmp/obj/gcc/can_freertos_customization/Siul2_Port_Ip.o
                0x34007c3c                Siul2_Port_Ip_SetInputBuffer
 .text.Siul2_Port_Ip_SetPinDirection
                0x34007d08       0xc0 tmp/obj/gcc/can_freertos_customization/Siul2_Port_Ip.o
                0x34007d08                Siul2_Port_Ip_SetPinDirection
 .text.Siul2_Port_Ip_RevertPinConfiguration
                0x34007dc8       0xb4 tmp/obj/gcc/can_freertos_customization/Siul2_Port_Ip.o
                0x34007dc8                Siul2_Port_Ip_RevertPinConfiguration
 .text.Siul2_Port_Ip_GetPinConfiguration
                0x34007e7c      0x144 tmp/obj/gcc/can_freertos_customization/Siul2_Port_Ip.o
                0x34007e7c                Siul2_Port_Ip_GetPinConfiguration
 .text.Dio_ReadChannel
                0x34007fc0       0x24 tmp/obj/gcc/can_freertos_customization/Dio.o
                0x34007fc0                Dio_ReadChannel
 .text.Dio_WriteChannel
                0x34007fe4       0x24 tmp/obj/gcc/can_freertos_customization/Dio.o
                0x34007fe4                Dio_WriteChannel
 .text.Dio_ReadPort
                0x34008008       0x24 tmp/obj/gcc/can_freertos_customization/Dio.o
                0x34008008                Dio_ReadPort
 .text.Dio_WritePort
                0x3400802c       0x24 tmp/obj/gcc/can_freertos_customization/Dio.o
                0x3400802c                Dio_WritePort
 .text.Dio_ReadChannelGroup
                0x34008050       0x20 tmp/obj/gcc/can_freertos_customization/Dio.o
                0x34008050                Dio_ReadChannelGroup
 .text.Dio_WriteChannelGroup
                0x34008070       0x1e tmp/obj/gcc/can_freertos_customization/Dio.o
                0x34008070                Dio_WriteChannelGroup
 .text.Dio_Ipw_ReverseBits
                0x3400808e       0x62 tmp/obj/gcc/can_freertos_customization/Dio_Ipw.o
 .text.Dio_Ipw_ReadChannelValue
                0x340080f0       0x48 tmp/obj/gcc/can_freertos_customization/Dio_Ipw.o
 .text.Dio_Ipw_ReadChannel
                0x34008138       0x3c tmp/obj/gcc/can_freertos_customization/Dio_Ipw.o
                0x34008138                Dio_Ipw_ReadChannel
 .text.Dio_Ipw_WriteChannel
                0x34008174       0x50 tmp/obj/gcc/can_freertos_customization/Dio_Ipw.o
                0x34008174                Dio_Ipw_WriteChannel
 .text.Dio_Ipw_ReadPort
                0x340081c4       0x70 tmp/obj/gcc/can_freertos_customization/Dio_Ipw.o
                0x340081c4                Dio_Ipw_ReadPort
 .text.Dio_Ipw_WritePort
                0x34008234       0x74 tmp/obj/gcc/can_freertos_customization/Dio_Ipw.o
                0x34008234                Dio_Ipw_WritePort
 .text.Dio_Ipw_ReadChannelGroup
                0x340082a8       0x94 tmp/obj/gcc/can_freertos_customization/Dio_Ipw.o
                0x340082a8                Dio_Ipw_ReadChannelGroup
 .text.Dio_Ipw_WriteChannelGroup
                0x3400833c       0x48 tmp/obj/gcc/can_freertos_customization/Dio_Ipw.o
                0x3400833c                Dio_Ipw_WriteChannelGroup
 .text.Siul2_Dio_Ip_Rev_Bit_16
                0x34008384       0x68 tmp/obj/gcc/can_freertos_customization/Siul2_Dio_Ip.o
 .text.Siul2_Dio_Ip_WritePin
                0x340083ec       0x5c tmp/obj/gcc/can_freertos_customization/Siul2_Dio_Ip.o
                0x340083ec                Siul2_Dio_Ip_WritePin
 .text.Siul2_Dio_Ip_WritePins
                0x34008448       0x24 tmp/obj/gcc/can_freertos_customization/Siul2_Dio_Ip.o
                0x34008448                Siul2_Dio_Ip_WritePins
 .text.Siul2_Dio_Ip_GetPinsOutput
                0x3400846c       0x26 tmp/obj/gcc/can_freertos_customization/Siul2_Dio_Ip.o
                0x3400846c                Siul2_Dio_Ip_GetPinsOutput
 .text.Siul2_Dio_Ip_SetPins
                0x34008492       0x2e tmp/obj/gcc/can_freertos_customization/Siul2_Dio_Ip.o
                0x34008492                Siul2_Dio_Ip_SetPins
 .text.Siul2_Dio_Ip_ClearPins
                0x340084c0       0x30 tmp/obj/gcc/can_freertos_customization/Siul2_Dio_Ip.o
                0x340084c0                Siul2_Dio_Ip_ClearPins
 .text.Siul2_Dio_Ip_TogglePins
                0x340084f0       0x2e tmp/obj/gcc/can_freertos_customization/Siul2_Dio_Ip.o
                0x340084f0                Siul2_Dio_Ip_TogglePins
 .text.Siul2_Dio_Ip_ReadPins
                0x3400851e       0x28 tmp/obj/gcc/can_freertos_customization/Siul2_Dio_Ip.o
                0x3400851e                Siul2_Dio_Ip_ReadPins
 .text.Siul2_Dio_Ip_ReadPin
                0x34008546       0x40 tmp/obj/gcc/can_freertos_customization/Siul2_Dio_Ip.o
                0x34008546                Siul2_Dio_Ip_ReadPin
 *fill*         0x34008586        0x2 
 .text.Siul2_Dio_Ip_MaskedWritePins
                0x34008588       0x60 tmp/obj/gcc/can_freertos_customization/Siul2_Dio_Ip.o
                0x34008588                Siul2_Dio_Ip_MaskedWritePins
 .text.Spi_HWUnitCheckValidity
                0x340085e8       0xa4 tmp/obj/gcc/can_freertos_customization/Spi.o
 .text.Spi_CheckInit
                0x3400868c       0x38 tmp/obj/gcc/can_freertos_customization/Spi.o
 .text.Spi_GetAsyncStatus
                0x340086c4       0xa4 tmp/obj/gcc/can_freertos_customization/Spi.o
 .text.Spi_LockJobs
                0x34008768       0x7c tmp/obj/gcc/can_freertos_customization/Spi.o
 .text.Spi_UnlockRemainingJobs
                0x340087e4       0x5c tmp/obj/gcc/can_freertos_customization/Spi.o
 .text.Spi_ScheduleJob
                0x34008840       0xd0 tmp/obj/gcc/can_freertos_customization/Spi.o
 .text.Spi_SynctransmitCheckJobsIsValid
                0x34008910       0x94 tmp/obj/gcc/can_freertos_customization/Spi.o
 .text.Spi_SyncJobsTranfer
                0x340089a4      0x128 tmp/obj/gcc/can_freertos_customization/Spi.o
 .text.Spi_ChannelCheckValidity
                0x34008acc       0xb8 tmp/obj/gcc/can_freertos_customization/Spi.o
 .text.Spi_AsyncTransmitCheckDemReport
                0x34008b84       0x5c tmp/obj/gcc/can_freertos_customization/Spi.o
 .text.Spi_InitCheckDemError
                0x34008be0       0x50 tmp/obj/gcc/can_freertos_customization/Spi.o
 .text.Spi_InitChannelsJobsSeqsState
                0x34008c30      0x190 tmp/obj/gcc/can_freertos_customization/Spi.o
 .text.Spi_InitJobsList
                0x34008dc0       0x80 tmp/obj/gcc/can_freertos_customization/Spi.o
 .text.Spi_SyncTransmitCheckDemReport
                0x34008e40       0xb0 tmp/obj/gcc/can_freertos_customization/Spi.o
 .text.Spi_GetStatusAsyncCheckHwBusy
                0x34008ef0       0x80 tmp/obj/gcc/can_freertos_customization/Spi.o
 .text.Spi_LockJobsProcess
                0x34008f70       0xb4 tmp/obj/gcc/can_freertos_customization/Spi.o
 .text.Spi_GetVersionInfo
                0x34009024       0x42 tmp/obj/gcc/can_freertos_customization/Spi.o
                0x34009024                Spi_GetVersionInfo
 *fill*         0x34009066        0x2 
 .text.Spi_Init
                0x34009068       0xe4 tmp/obj/gcc/can_freertos_customization/Spi.o
                0x34009068                Spi_Init
 .text.Spi_DeInit
                0x3400914c       0xb8 tmp/obj/gcc/can_freertos_customization/Spi.o
                0x3400914c                Spi_DeInit
 .text.Spi_WriteIB
                0x34009204       0xd4 tmp/obj/gcc/can_freertos_customization/Spi.o
                0x34009204                Spi_WriteIB
 .text.Spi_AsyncTransmit
                0x340092d8      0x21c tmp/obj/gcc/can_freertos_customization/Spi.o
                0x340092d8                Spi_AsyncTransmit
 .text.Spi_ReadIB
                0x340094f4       0xb4 tmp/obj/gcc/can_freertos_customization/Spi.o
                0x340094f4                Spi_ReadIB
 .text.Spi_GetStatus
                0x340095a8       0xa4 tmp/obj/gcc/can_freertos_customization/Spi.o
                0x340095a8                Spi_GetStatus
 .text.Spi_GetJobResult
                0x3400964c       0xc8 tmp/obj/gcc/can_freertos_customization/Spi.o
                0x3400964c                Spi_GetJobResult
 .text.Spi_GetSequenceResult
                0x34009714       0xb4 tmp/obj/gcc/can_freertos_customization/Spi.o
                0x34009714                Spi_GetSequenceResult
 .text.Spi_SyncTransmit
                0x340097c8      0x1c4 tmp/obj/gcc/can_freertos_customization/Spi.o
                0x340097c8                Spi_SyncTransmit
 .text.Spi_GetHWUnitStatus
                0x3400998c       0x40 tmp/obj/gcc/can_freertos_customization/Spi.o
                0x3400998c                Spi_GetHWUnitStatus
 .text.Spi_Cancel
                0x340099cc       0xa4 tmp/obj/gcc/can_freertos_customization/Spi.o
                0x340099cc                Spi_Cancel
 .text.Spi_SetAsyncMode
                0x34009a70       0xb4 tmp/obj/gcc/can_freertos_customization/Spi.o
                0x34009a70                Spi_SetAsyncMode
 .text.Spi_MainFunction_Handling
                0x34009b24       0x88 tmp/obj/gcc/can_freertos_customization/Spi.o
                0x34009b24                Spi_MainFunction_Handling
 .text.Spi_ScheduleNextJob
                0x34009bac       0xf0 tmp/obj/gcc/can_freertos_customization/Spi.o
 .text.Spi_JobTransferFinished
                0x34009c9c      0x188 tmp/obj/gcc/can_freertos_customization/Spi.o
                0x34009c9c                Spi_JobTransferFinished
 .text.Spi_Ip_TransferProcess
                0x34009e24      0x148 tmp/obj/gcc/can_freertos_customization/Spi_Ip.o
 .text.Spi_Ip_ReadRxFifo
                0x34009f6c       0xb8 tmp/obj/gcc/can_freertos_customization/Spi_Ip.o
 .text.Spi_Ip_WriteTxFifo
                0x3400a024       0xd8 tmp/obj/gcc/can_freertos_customization/Spi_Ip.o
 .text.Spi_Ip_ReceiveData
                0x3400a0fc       0x84 tmp/obj/gcc/can_freertos_customization/Spi_Ip.o
 .text.Spi_Ip_ChannelFinished
                0x3400a180       0x5c tmp/obj/gcc/can_freertos_customization/Spi_Ip.o
 .text.Spi_Ip_WriteCmdFifo
                0x3400a1dc       0x9c tmp/obj/gcc/can_freertos_customization/Spi_Ip.o
 .text.Spi_Ip_UpdateTxRxCounter
                0x3400a278       0x70 tmp/obj/gcc/can_freertos_customization/Spi_Ip.o
 .text.Spi_Ip_Init
                0x3400a2e8       0xa0 tmp/obj/gcc/can_freertos_customization/Spi_Ip.o
                0x3400a2e8                Spi_Ip_Init
 .text.Spi_Ip_DeInit
                0x3400a388       0x90 tmp/obj/gcc/can_freertos_customization/Spi_Ip.o
                0x3400a388                Spi_Ip_DeInit
 .text.Spi_Ip_SyncTransmit
                0x3400a418      0x338 tmp/obj/gcc/can_freertos_customization/Spi_Ip.o
                0x3400a418                Spi_Ip_SyncTransmit
 .text.Spi_Ip_AsyncTransmit
                0x3400a750      0x208 tmp/obj/gcc/can_freertos_customization/Spi_Ip.o
                0x3400a750                Spi_Ip_AsyncTransmit
 .text.Spi_Ip_ManageBuffers
                0x3400a958       0x30 tmp/obj/gcc/can_freertos_customization/Spi_Ip.o
                0x3400a958                Spi_Ip_ManageBuffers
 .text.Spi_Ip_UpdateFrameSize
                0x3400a988       0x48 tmp/obj/gcc/can_freertos_customization/Spi_Ip.o
                0x3400a988                Spi_Ip_UpdateFrameSize
 .text.Spi_Ip_UpdateLsb
                0x3400a9d0       0x48 tmp/obj/gcc/can_freertos_customization/Spi_Ip.o
                0x3400a9d0                Spi_Ip_UpdateLsb
 .text.Spi_Ip_UpdateDefaultTransmitData
                0x3400aa18       0x44 tmp/obj/gcc/can_freertos_customization/Spi_Ip.o
                0x3400aa18                Spi_Ip_UpdateDefaultTransmitData
 .text.Spi_Ip_UpdateTransferMode
                0x3400aa5c       0x44 tmp/obj/gcc/can_freertos_customization/Spi_Ip.o
                0x3400aa5c                Spi_Ip_UpdateTransferMode
 .text.Spi_Ip_Cancel
                0x3400aaa0       0x64 tmp/obj/gcc/can_freertos_customization/Spi_Ip.o
                0x3400aaa0                Spi_Ip_Cancel
 .text.Spi_Ip_IrqHandler
                0x3400ab04       0x74 tmp/obj/gcc/can_freertos_customization/Spi_Ip.o
                0x3400ab04                Spi_Ip_IrqHandler
 .text.Spi_Ip_GetStatus
                0x3400ab78       0x38 tmp/obj/gcc/can_freertos_customization/Spi_Ip.o
                0x3400ab78                Spi_Ip_GetStatus
 .text.Spi_Ip_SPI_5_IRQHandler
                0x3400abb0        0xe tmp/obj/gcc/can_freertos_customization/Spi_Ip_Irq.o
                0x3400abb0                Spi_Ip_SPI_5_IRQHandler
 .text.Spi_Ipw_SyncTransmitProcess
                0x3400abbe       0x4c tmp/obj/gcc/can_freertos_customization/Spi_Ipw.o
 *fill*         0x3400ac0a        0x2 
 .text.Spi_Ipw_Init
                0x3400ac0c       0x40 tmp/obj/gcc/can_freertos_customization/Spi_Ipw.o
                0x3400ac0c                Spi_Ipw_Init
 .text.Spi_Ipw_DeInit
                0x3400ac4c       0x54 tmp/obj/gcc/can_freertos_customization/Spi_Ipw.o
                0x3400ac4c                Spi_Ipw_DeInit
 .text.Spi_Ipw_SyncTransmit
                0x3400aca0      0x108 tmp/obj/gcc/can_freertos_customization/Spi_Ipw.o
                0x3400aca0                Spi_Ipw_SyncTransmit
 .text.Spi_Ipw_IrqPoll
                0x3400ada8       0x70 tmp/obj/gcc/can_freertos_customization/Spi_Ipw.o
                0x3400ada8                Spi_Ipw_IrqPoll
 .text.Spi_Ipw_IrqConfig
                0x3400ae18       0x80 tmp/obj/gcc/can_freertos_customization/Spi_Ipw.o
                0x3400ae18                Spi_Ipw_IrqConfig
 .text.Spi_Ipw_EndChannelCallback
                0x3400ae98      0x1b0 tmp/obj/gcc/can_freertos_customization/Spi_Ipw.o
 .text.Spi_Ipw_Callback
                0x3400b048       0x34 tmp/obj/gcc/can_freertos_customization/Spi_Ipw.o
 .text.Spi_Ipw_JobTransfer
                0x3400b07c      0x104 tmp/obj/gcc/can_freertos_customization/Spi_Ipw.o
                0x3400b07c                Spi_Ipw_JobTransfer
 .text.Mcu_schm_read_msr
                0x3400b180       0x14 tmp/obj/gcc/can_freertos_customization/SchM_Mcu.o
                0x3400b180                Mcu_schm_read_msr
 .text.SchM_Enter_Mcu_MCU_EXCLUSIVE_AREA_00
                0x3400b194       0x58 tmp/obj/gcc/can_freertos_customization/SchM_Mcu.o
                0x3400b194                SchM_Enter_Mcu_MCU_EXCLUSIVE_AREA_00
 .text.SchM_Exit_Mcu_MCU_EXCLUSIVE_AREA_00
                0x3400b1ec       0x50 tmp/obj/gcc/can_freertos_customization/SchM_Mcu.o
                0x3400b1ec                SchM_Exit_Mcu_MCU_EXCLUSIVE_AREA_00
 .text.SchM_Enter_Mcu_MCU_EXCLUSIVE_AREA_01
                0x3400b23c       0x58 tmp/obj/gcc/can_freertos_customization/SchM_Mcu.o
                0x3400b23c                SchM_Enter_Mcu_MCU_EXCLUSIVE_AREA_01
 .text.SchM_Exit_Mcu_MCU_EXCLUSIVE_AREA_01
                0x3400b294       0x50 tmp/obj/gcc/can_freertos_customization/SchM_Mcu.o
                0x3400b294                SchM_Exit_Mcu_MCU_EXCLUSIVE_AREA_01
 .text.SchM_Enter_Mcu_MCU_EXCLUSIVE_AREA_02
                0x3400b2e4       0x58 tmp/obj/gcc/can_freertos_customization/SchM_Mcu.o
                0x3400b2e4                SchM_Enter_Mcu_MCU_EXCLUSIVE_AREA_02
 .text.SchM_Exit_Mcu_MCU_EXCLUSIVE_AREA_02
                0x3400b33c       0x50 tmp/obj/gcc/can_freertos_customization/SchM_Mcu.o
                0x3400b33c                SchM_Exit_Mcu_MCU_EXCLUSIVE_AREA_02
 .text.Port_schm_read_msr
                0x3400b38c       0x14 tmp/obj/gcc/can_freertos_customization/SchM_Port.o
                0x3400b38c                Port_schm_read_msr
 .text.SchM_Enter_Port_PORT_EXCLUSIVE_AREA_00
                0x3400b3a0       0x58 tmp/obj/gcc/can_freertos_customization/SchM_Port.o
                0x3400b3a0                SchM_Enter_Port_PORT_EXCLUSIVE_AREA_00
 .text.SchM_Exit_Port_PORT_EXCLUSIVE_AREA_00
                0x3400b3f8       0x50 tmp/obj/gcc/can_freertos_customization/SchM_Port.o
                0x3400b3f8                SchM_Exit_Port_PORT_EXCLUSIVE_AREA_00
 .text.SchM_Enter_Port_PORT_EXCLUSIVE_AREA_01
                0x3400b448       0x58 tmp/obj/gcc/can_freertos_customization/SchM_Port.o
                0x3400b448                SchM_Enter_Port_PORT_EXCLUSIVE_AREA_01
 .text.SchM_Exit_Port_PORT_EXCLUSIVE_AREA_01
                0x3400b4a0       0x50 tmp/obj/gcc/can_freertos_customization/SchM_Port.o
                0x3400b4a0                SchM_Exit_Port_PORT_EXCLUSIVE_AREA_01
 .text.SchM_Enter_Port_PORT_EXCLUSIVE_AREA_02
                0x3400b4f0       0x58 tmp/obj/gcc/can_freertos_customization/SchM_Port.o
                0x3400b4f0                SchM_Enter_Port_PORT_EXCLUSIVE_AREA_02
 .text.SchM_Exit_Port_PORT_EXCLUSIVE_AREA_02
                0x3400b548       0x50 tmp/obj/gcc/can_freertos_customization/SchM_Port.o
                0x3400b548                SchM_Exit_Port_PORT_EXCLUSIVE_AREA_02
 .text.SchM_Enter_Port_PORT_EXCLUSIVE_AREA_03
                0x3400b598       0x58 tmp/obj/gcc/can_freertos_customization/SchM_Port.o
                0x3400b598                SchM_Enter_Port_PORT_EXCLUSIVE_AREA_03
 .text.SchM_Exit_Port_PORT_EXCLUSIVE_AREA_03
                0x3400b5f0       0x50 tmp/obj/gcc/can_freertos_customization/SchM_Port.o
                0x3400b5f0                SchM_Exit_Port_PORT_EXCLUSIVE_AREA_03
 .text.SchM_Enter_Port_PORT_EXCLUSIVE_AREA_04
                0x3400b640       0x58 tmp/obj/gcc/can_freertos_customization/SchM_Port.o
                0x3400b640                SchM_Enter_Port_PORT_EXCLUSIVE_AREA_04
 .text.SchM_Exit_Port_PORT_EXCLUSIVE_AREA_04
                0x3400b698       0x50 tmp/obj/gcc/can_freertos_customization/SchM_Port.o
                0x3400b698                SchM_Exit_Port_PORT_EXCLUSIVE_AREA_04
 .text.SchM_Enter_Port_PORT_EXCLUSIVE_AREA_05
                0x3400b6e8       0x58 tmp/obj/gcc/can_freertos_customization/SchM_Port.o
                0x3400b6e8                SchM_Enter_Port_PORT_EXCLUSIVE_AREA_05
 .text.SchM_Exit_Port_PORT_EXCLUSIVE_AREA_05
                0x3400b740       0x50 tmp/obj/gcc/can_freertos_customization/SchM_Port.o
                0x3400b740                SchM_Exit_Port_PORT_EXCLUSIVE_AREA_05
 .text.SchM_Enter_Port_PORT_EXCLUSIVE_AREA_06
                0x3400b790       0x58 tmp/obj/gcc/can_freertos_customization/SchM_Port.o
                0x3400b790                SchM_Enter_Port_PORT_EXCLUSIVE_AREA_06
 .text.SchM_Exit_Port_PORT_EXCLUSIVE_AREA_06
                0x3400b7e8       0x50 tmp/obj/gcc/can_freertos_customization/SchM_Port.o
                0x3400b7e8                SchM_Exit_Port_PORT_EXCLUSIVE_AREA_06
 .text.SchM_Enter_Port_PORT_EXCLUSIVE_AREA_07
                0x3400b838       0x58 tmp/obj/gcc/can_freertos_customization/SchM_Port.o
                0x3400b838                SchM_Enter_Port_PORT_EXCLUSIVE_AREA_07
 .text.SchM_Exit_Port_PORT_EXCLUSIVE_AREA_07
                0x3400b890       0x50 tmp/obj/gcc/can_freertos_customization/SchM_Port.o
                0x3400b890                SchM_Exit_Port_PORT_EXCLUSIVE_AREA_07
 .text.SchM_Enter_Port_PORT_EXCLUSIVE_AREA_08
                0x3400b8e0       0x58 tmp/obj/gcc/can_freertos_customization/SchM_Port.o
                0x3400b8e0                SchM_Enter_Port_PORT_EXCLUSIVE_AREA_08
 .text.SchM_Exit_Port_PORT_EXCLUSIVE_AREA_08
                0x3400b938       0x50 tmp/obj/gcc/can_freertos_customization/SchM_Port.o
                0x3400b938                SchM_Exit_Port_PORT_EXCLUSIVE_AREA_08
 .text.SchM_Enter_Port_PORT_EXCLUSIVE_AREA_09
                0x3400b988       0x58 tmp/obj/gcc/can_freertos_customization/SchM_Port.o
                0x3400b988                SchM_Enter_Port_PORT_EXCLUSIVE_AREA_09
 .text.SchM_Exit_Port_PORT_EXCLUSIVE_AREA_09
                0x3400b9e0       0x50 tmp/obj/gcc/can_freertos_customization/SchM_Port.o
                0x3400b9e0                SchM_Exit_Port_PORT_EXCLUSIVE_AREA_09
 .text.SchM_Enter_Port_PORT_EXCLUSIVE_AREA_10
                0x3400ba30       0x58 tmp/obj/gcc/can_freertos_customization/SchM_Port.o
                0x3400ba30                SchM_Enter_Port_PORT_EXCLUSIVE_AREA_10
 .text.SchM_Exit_Port_PORT_EXCLUSIVE_AREA_10
                0x3400ba88       0x50 tmp/obj/gcc/can_freertos_customization/SchM_Port.o
                0x3400ba88                SchM_Exit_Port_PORT_EXCLUSIVE_AREA_10
 .text.SchM_Enter_Port_PORT_EXCLUSIVE_AREA_11
                0x3400bad8       0x58 tmp/obj/gcc/can_freertos_customization/SchM_Port.o
                0x3400bad8                SchM_Enter_Port_PORT_EXCLUSIVE_AREA_11
 .text.SchM_Exit_Port_PORT_EXCLUSIVE_AREA_11
                0x3400bb30       0x50 tmp/obj/gcc/can_freertos_customization/SchM_Port.o
                0x3400bb30                SchM_Exit_Port_PORT_EXCLUSIVE_AREA_11
 .text.SchM_Enter_Port_PORT_EXCLUSIVE_AREA_12
                0x3400bb80       0x58 tmp/obj/gcc/can_freertos_customization/SchM_Port.o
                0x3400bb80                SchM_Enter_Port_PORT_EXCLUSIVE_AREA_12
 .text.SchM_Exit_Port_PORT_EXCLUSIVE_AREA_12
                0x3400bbd8       0x50 tmp/obj/gcc/can_freertos_customization/SchM_Port.o
                0x3400bbd8                SchM_Exit_Port_PORT_EXCLUSIVE_AREA_12
 .text.SchM_Enter_Port_PORT_EXCLUSIVE_AREA_13
                0x3400bc28       0x58 tmp/obj/gcc/can_freertos_customization/SchM_Port.o
                0x3400bc28                SchM_Enter_Port_PORT_EXCLUSIVE_AREA_13
 .text.SchM_Exit_Port_PORT_EXCLUSIVE_AREA_13
                0x3400bc80       0x50 tmp/obj/gcc/can_freertos_customization/SchM_Port.o
                0x3400bc80                SchM_Exit_Port_PORT_EXCLUSIVE_AREA_13
 .text.SchM_Enter_Port_PORT_EXCLUSIVE_AREA_14
                0x3400bcd0       0x58 tmp/obj/gcc/can_freertos_customization/SchM_Port.o
                0x3400bcd0                SchM_Enter_Port_PORT_EXCLUSIVE_AREA_14
 .text.SchM_Exit_Port_PORT_EXCLUSIVE_AREA_14
                0x3400bd28       0x50 tmp/obj/gcc/can_freertos_customization/SchM_Port.o
                0x3400bd28                SchM_Exit_Port_PORT_EXCLUSIVE_AREA_14
 .text.SchM_Enter_Port_PORT_EXCLUSIVE_AREA_15
                0x3400bd78       0x58 tmp/obj/gcc/can_freertos_customization/SchM_Port.o
                0x3400bd78                SchM_Enter_Port_PORT_EXCLUSIVE_AREA_15
 .text.SchM_Exit_Port_PORT_EXCLUSIVE_AREA_15
                0x3400bdd0       0x50 tmp/obj/gcc/can_freertos_customization/SchM_Port.o
                0x3400bdd0                SchM_Exit_Port_PORT_EXCLUSIVE_AREA_15
 .text.SchM_Enter_Port_PORT_EXCLUSIVE_AREA_16
                0x3400be20       0x58 tmp/obj/gcc/can_freertos_customization/SchM_Port.o
                0x3400be20                SchM_Enter_Port_PORT_EXCLUSIVE_AREA_16
 .text.SchM_Exit_Port_PORT_EXCLUSIVE_AREA_16
                0x3400be78       0x50 tmp/obj/gcc/can_freertos_customization/SchM_Port.o
                0x3400be78                SchM_Exit_Port_PORT_EXCLUSIVE_AREA_16
 .text.SchM_Enter_Port_PORT_EXCLUSIVE_AREA_17
                0x3400bec8       0x58 tmp/obj/gcc/can_freertos_customization/SchM_Port.o
                0x3400bec8                SchM_Enter_Port_PORT_EXCLUSIVE_AREA_17
 .text.SchM_Exit_Port_PORT_EXCLUSIVE_AREA_17
                0x3400bf20       0x50 tmp/obj/gcc/can_freertos_customization/SchM_Port.o
                0x3400bf20                SchM_Exit_Port_PORT_EXCLUSIVE_AREA_17
 .text.SchM_Enter_Port_PORT_EXCLUSIVE_AREA_18
                0x3400bf70       0x58 tmp/obj/gcc/can_freertos_customization/SchM_Port.o
                0x3400bf70                SchM_Enter_Port_PORT_EXCLUSIVE_AREA_18
 .text.SchM_Exit_Port_PORT_EXCLUSIVE_AREA_18
                0x3400bfc8       0x50 tmp/obj/gcc/can_freertos_customization/SchM_Port.o
                0x3400bfc8                SchM_Exit_Port_PORT_EXCLUSIVE_AREA_18
 .text.SchM_Enter_Port_PORT_EXCLUSIVE_AREA_19
                0x3400c018       0x58 tmp/obj/gcc/can_freertos_customization/SchM_Port.o
                0x3400c018                SchM_Enter_Port_PORT_EXCLUSIVE_AREA_19
 .text.SchM_Exit_Port_PORT_EXCLUSIVE_AREA_19
                0x3400c070       0x50 tmp/obj/gcc/can_freertos_customization/SchM_Port.o
                0x3400c070                SchM_Exit_Port_PORT_EXCLUSIVE_AREA_19
 .text.SchM_Enter_Port_PORT_EXCLUSIVE_AREA_20
                0x3400c0c0       0x58 tmp/obj/gcc/can_freertos_customization/SchM_Port.o
                0x3400c0c0                SchM_Enter_Port_PORT_EXCLUSIVE_AREA_20
 .text.SchM_Exit_Port_PORT_EXCLUSIVE_AREA_20
                0x3400c118       0x50 tmp/obj/gcc/can_freertos_customization/SchM_Port.o
                0x3400c118                SchM_Exit_Port_PORT_EXCLUSIVE_AREA_20
 .text.SchM_Enter_Port_PORT_EXCLUSIVE_AREA_21
                0x3400c168       0x58 tmp/obj/gcc/can_freertos_customization/SchM_Port.o
                0x3400c168                SchM_Enter_Port_PORT_EXCLUSIVE_AREA_21
 .text.SchM_Exit_Port_PORT_EXCLUSIVE_AREA_21
                0x3400c1c0       0x50 tmp/obj/gcc/can_freertos_customization/SchM_Port.o
                0x3400c1c0                SchM_Exit_Port_PORT_EXCLUSIVE_AREA_21
 .text.SchM_Enter_Port_PORT_EXCLUSIVE_AREA_22
                0x3400c210       0x58 tmp/obj/gcc/can_freertos_customization/SchM_Port.o
                0x3400c210                SchM_Enter_Port_PORT_EXCLUSIVE_AREA_22
 .text.SchM_Exit_Port_PORT_EXCLUSIVE_AREA_22
                0x3400c268       0x50 tmp/obj/gcc/can_freertos_customization/SchM_Port.o
                0x3400c268                SchM_Exit_Port_PORT_EXCLUSIVE_AREA_22
 .text.SchM_Enter_Port_PORT_EXCLUSIVE_AREA_23
                0x3400c2b8       0x58 tmp/obj/gcc/can_freertos_customization/SchM_Port.o
                0x3400c2b8                SchM_Enter_Port_PORT_EXCLUSIVE_AREA_23
 .text.SchM_Exit_Port_PORT_EXCLUSIVE_AREA_23
                0x3400c310       0x50 tmp/obj/gcc/can_freertos_customization/SchM_Port.o
                0x3400c310                SchM_Exit_Port_PORT_EXCLUSIVE_AREA_23
 .text.SchM_Enter_Port_PORT_EXCLUSIVE_AREA_24
                0x3400c360       0x58 tmp/obj/gcc/can_freertos_customization/SchM_Port.o
                0x3400c360                SchM_Enter_Port_PORT_EXCLUSIVE_AREA_24
 .text.SchM_Exit_Port_PORT_EXCLUSIVE_AREA_24
                0x3400c3b8       0x50 tmp/obj/gcc/can_freertos_customization/SchM_Port.o
                0x3400c3b8                SchM_Exit_Port_PORT_EXCLUSIVE_AREA_24
 .text.SchM_Enter_Port_PORT_EXCLUSIVE_AREA_25
                0x3400c408       0x58 tmp/obj/gcc/can_freertos_customization/SchM_Port.o
                0x3400c408                SchM_Enter_Port_PORT_EXCLUSIVE_AREA_25
 .text.SchM_Exit_Port_PORT_EXCLUSIVE_AREA_25
                0x3400c460       0x50 tmp/obj/gcc/can_freertos_customization/SchM_Port.o
                0x3400c460                SchM_Exit_Port_PORT_EXCLUSIVE_AREA_25
 .text.SchM_Enter_Port_PORT_EXCLUSIVE_AREA_26
                0x3400c4b0       0x58 tmp/obj/gcc/can_freertos_customization/SchM_Port.o
                0x3400c4b0                SchM_Enter_Port_PORT_EXCLUSIVE_AREA_26
 .text.SchM_Exit_Port_PORT_EXCLUSIVE_AREA_26
                0x3400c508       0x50 tmp/obj/gcc/can_freertos_customization/SchM_Port.o
                0x3400c508                SchM_Exit_Port_PORT_EXCLUSIVE_AREA_26
 .text.SchM_Enter_Port_PORT_EXCLUSIVE_AREA_27
                0x3400c558       0x58 tmp/obj/gcc/can_freertos_customization/SchM_Port.o
                0x3400c558                SchM_Enter_Port_PORT_EXCLUSIVE_AREA_27
 .text.SchM_Exit_Port_PORT_EXCLUSIVE_AREA_27
                0x3400c5b0       0x50 tmp/obj/gcc/can_freertos_customization/SchM_Port.o
                0x3400c5b0                SchM_Exit_Port_PORT_EXCLUSIVE_AREA_27
 .text.Dio_schm_read_msr
                0x3400c600       0x14 tmp/obj/gcc/can_freertos_customization/SchM_Dio.o
                0x3400c600                Dio_schm_read_msr
 .text.SchM_Enter_Dio_DIO_EXCLUSIVE_AREA_00
                0x3400c614       0x58 tmp/obj/gcc/can_freertos_customization/SchM_Dio.o
                0x3400c614                SchM_Enter_Dio_DIO_EXCLUSIVE_AREA_00
 .text.SchM_Exit_Dio_DIO_EXCLUSIVE_AREA_00
                0x3400c66c       0x50 tmp/obj/gcc/can_freertos_customization/SchM_Dio.o
                0x3400c66c                SchM_Exit_Dio_DIO_EXCLUSIVE_AREA_00
 .text.SchM_Enter_Dio_DIO_EXCLUSIVE_AREA_01
                0x3400c6bc       0x58 tmp/obj/gcc/can_freertos_customization/SchM_Dio.o
                0x3400c6bc                SchM_Enter_Dio_DIO_EXCLUSIVE_AREA_01
 .text.SchM_Exit_Dio_DIO_EXCLUSIVE_AREA_01
                0x3400c714       0x50 tmp/obj/gcc/can_freertos_customization/SchM_Dio.o
                0x3400c714                SchM_Exit_Dio_DIO_EXCLUSIVE_AREA_01
 .text.Spi_schm_read_msr
                0x3400c764       0x14 tmp/obj/gcc/can_freertos_customization/SchM_Spi.o
                0x3400c764                Spi_schm_read_msr
 .text.SchM_Enter_Spi_SPI_EXCLUSIVE_AREA_00
                0x3400c778       0x58 tmp/obj/gcc/can_freertos_customization/SchM_Spi.o
                0x3400c778                SchM_Enter_Spi_SPI_EXCLUSIVE_AREA_00
 .text.SchM_Exit_Spi_SPI_EXCLUSIVE_AREA_00
                0x3400c7d0       0x50 tmp/obj/gcc/can_freertos_customization/SchM_Spi.o
                0x3400c7d0                SchM_Exit_Spi_SPI_EXCLUSIVE_AREA_00
 .text.SchM_Enter_Spi_SPI_EXCLUSIVE_AREA_01
                0x3400c820       0x58 tmp/obj/gcc/can_freertos_customization/SchM_Spi.o
                0x3400c820                SchM_Enter_Spi_SPI_EXCLUSIVE_AREA_01
 .text.SchM_Exit_Spi_SPI_EXCLUSIVE_AREA_01
                0x3400c878       0x50 tmp/obj/gcc/can_freertos_customization/SchM_Spi.o
                0x3400c878                SchM_Exit_Spi_SPI_EXCLUSIVE_AREA_01
 .text.SchM_Enter_Spi_SPI_EXCLUSIVE_AREA_02
                0x3400c8c8       0x58 tmp/obj/gcc/can_freertos_customization/SchM_Spi.o
                0x3400c8c8                SchM_Enter_Spi_SPI_EXCLUSIVE_AREA_02
 .text.SchM_Exit_Spi_SPI_EXCLUSIVE_AREA_02
                0x3400c920       0x50 tmp/obj/gcc/can_freertos_customization/SchM_Spi.o
                0x3400c920                SchM_Exit_Spi_SPI_EXCLUSIVE_AREA_02
 .text.SchM_Enter_Spi_SPI_EXCLUSIVE_AREA_03
                0x3400c970       0x58 tmp/obj/gcc/can_freertos_customization/SchM_Spi.o
                0x3400c970                SchM_Enter_Spi_SPI_EXCLUSIVE_AREA_03
 .text.SchM_Exit_Spi_SPI_EXCLUSIVE_AREA_03
                0x3400c9c8       0x50 tmp/obj/gcc/can_freertos_customization/SchM_Spi.o
                0x3400c9c8                SchM_Exit_Spi_SPI_EXCLUSIVE_AREA_03
 .text.SchM_Enter_Spi_SPI_EXCLUSIVE_AREA_04
                0x3400ca18       0x58 tmp/obj/gcc/can_freertos_customization/SchM_Spi.o
                0x3400ca18                SchM_Enter_Spi_SPI_EXCLUSIVE_AREA_04
 .text.SchM_Exit_Spi_SPI_EXCLUSIVE_AREA_04
                0x3400ca70       0x50 tmp/obj/gcc/can_freertos_customization/SchM_Spi.o
                0x3400ca70                SchM_Exit_Spi_SPI_EXCLUSIVE_AREA_04
 .text.SchM_Enter_Spi_SPI_EXCLUSIVE_AREA_05
                0x3400cac0       0x58 tmp/obj/gcc/can_freertos_customization/SchM_Spi.o
                0x3400cac0                SchM_Enter_Spi_SPI_EXCLUSIVE_AREA_05
 .text.SchM_Exit_Spi_SPI_EXCLUSIVE_AREA_05
                0x3400cb18       0x50 tmp/obj/gcc/can_freertos_customization/SchM_Spi.o
                0x3400cb18                SchM_Exit_Spi_SPI_EXCLUSIVE_AREA_05
 .text.SchM_Enter_Spi_SPI_EXCLUSIVE_AREA_06
                0x3400cb68       0x58 tmp/obj/gcc/can_freertos_customization/SchM_Spi.o
                0x3400cb68                SchM_Enter_Spi_SPI_EXCLUSIVE_AREA_06
 .text.SchM_Exit_Spi_SPI_EXCLUSIVE_AREA_06
                0x3400cbc0       0x50 tmp/obj/gcc/can_freertos_customization/SchM_Spi.o
                0x3400cbc0                SchM_Exit_Spi_SPI_EXCLUSIVE_AREA_06
 .text.SchM_Enter_Spi_SPI_EXCLUSIVE_AREA_07
                0x3400cc10       0x58 tmp/obj/gcc/can_freertos_customization/SchM_Spi.o
                0x3400cc10                SchM_Enter_Spi_SPI_EXCLUSIVE_AREA_07
 .text.SchM_Exit_Spi_SPI_EXCLUSIVE_AREA_07
                0x3400cc68       0x50 tmp/obj/gcc/can_freertos_customization/SchM_Spi.o
                0x3400cc68                SchM_Exit_Spi_SPI_EXCLUSIVE_AREA_07
 .text.SchM_Enter_Spi_SPI_EXCLUSIVE_AREA_08
                0x3400ccb8       0x58 tmp/obj/gcc/can_freertos_customization/SchM_Spi.o
                0x3400ccb8                SchM_Enter_Spi_SPI_EXCLUSIVE_AREA_08
 .text.SchM_Exit_Spi_SPI_EXCLUSIVE_AREA_08
                0x3400cd10       0x50 tmp/obj/gcc/can_freertos_customization/SchM_Spi.o
                0x3400cd10                SchM_Exit_Spi_SPI_EXCLUSIVE_AREA_08
 .text.SchM_Enter_Spi_SPI_EXCLUSIVE_AREA_09
                0x3400cd60       0x58 tmp/obj/gcc/can_freertos_customization/SchM_Spi.o
                0x3400cd60                SchM_Enter_Spi_SPI_EXCLUSIVE_AREA_09
 .text.SchM_Exit_Spi_SPI_EXCLUSIVE_AREA_09
                0x3400cdb8       0x50 tmp/obj/gcc/can_freertos_customization/SchM_Spi.o
                0x3400cdb8                SchM_Exit_Spi_SPI_EXCLUSIVE_AREA_09
 .text.SchM_Enter_Spi_SPI_EXCLUSIVE_AREA_10
                0x3400ce08       0x58 tmp/obj/gcc/can_freertos_customization/SchM_Spi.o
                0x3400ce08                SchM_Enter_Spi_SPI_EXCLUSIVE_AREA_10
 .text.SchM_Exit_Spi_SPI_EXCLUSIVE_AREA_10
                0x3400ce60       0x50 tmp/obj/gcc/can_freertos_customization/SchM_Spi.o
                0x3400ce60                SchM_Exit_Spi_SPI_EXCLUSIVE_AREA_10
 .text.SchM_Enter_Spi_SPI_EXCLUSIVE_AREA_11
                0x3400ceb0       0x58 tmp/obj/gcc/can_freertos_customization/SchM_Spi.o
                0x3400ceb0                SchM_Enter_Spi_SPI_EXCLUSIVE_AREA_11
 .text.SchM_Exit_Spi_SPI_EXCLUSIVE_AREA_11
                0x3400cf08       0x50 tmp/obj/gcc/can_freertos_customization/SchM_Spi.o
                0x3400cf08                SchM_Exit_Spi_SPI_EXCLUSIVE_AREA_11
 .text.SchM_Enter_Spi_SPI_EXCLUSIVE_AREA_12
                0x3400cf58       0x58 tmp/obj/gcc/can_freertos_customization/SchM_Spi.o
                0x3400cf58                SchM_Enter_Spi_SPI_EXCLUSIVE_AREA_12
 .text.SchM_Exit_Spi_SPI_EXCLUSIVE_AREA_12
                0x3400cfb0       0x50 tmp/obj/gcc/can_freertos_customization/SchM_Spi.o
                0x3400cfb0                SchM_Exit_Spi_SPI_EXCLUSIVE_AREA_12
 .text.SchM_Enter_Spi_SPI_EXCLUSIVE_AREA_13
                0x3400d000       0x58 tmp/obj/gcc/can_freertos_customization/SchM_Spi.o
                0x3400d000                SchM_Enter_Spi_SPI_EXCLUSIVE_AREA_13
 .text.SchM_Exit_Spi_SPI_EXCLUSIVE_AREA_13
                0x3400d058       0x50 tmp/obj/gcc/can_freertos_customization/SchM_Spi.o
                0x3400d058                SchM_Exit_Spi_SPI_EXCLUSIVE_AREA_13
 .text.SchM_Enter_Spi_SPI_EXCLUSIVE_AREA_14
                0x3400d0a8       0x58 tmp/obj/gcc/can_freertos_customization/SchM_Spi.o
                0x3400d0a8                SchM_Enter_Spi_SPI_EXCLUSIVE_AREA_14
 .text.SchM_Exit_Spi_SPI_EXCLUSIVE_AREA_14
                0x3400d100       0x50 tmp/obj/gcc/can_freertos_customization/SchM_Spi.o
                0x3400d100                SchM_Exit_Spi_SPI_EXCLUSIVE_AREA_14
 .text.SchM_Enter_Spi_SPI_EXCLUSIVE_AREA_15
                0x3400d150       0x58 tmp/obj/gcc/can_freertos_customization/SchM_Spi.o
                0x3400d150                SchM_Enter_Spi_SPI_EXCLUSIVE_AREA_15
 .text.SchM_Exit_Spi_SPI_EXCLUSIVE_AREA_15
                0x3400d1a8       0x50 tmp/obj/gcc/can_freertos_customization/SchM_Spi.o
                0x3400d1a8                SchM_Exit_Spi_SPI_EXCLUSIVE_AREA_15
 .text.SchM_Enter_Spi_SPI_EXCLUSIVE_AREA_16
                0x3400d1f8       0x58 tmp/obj/gcc/can_freertos_customization/SchM_Spi.o
                0x3400d1f8                SchM_Enter_Spi_SPI_EXCLUSIVE_AREA_16
 .text.SchM_Exit_Spi_SPI_EXCLUSIVE_AREA_16
                0x3400d250       0x50 tmp/obj/gcc/can_freertos_customization/SchM_Spi.o
                0x3400d250                SchM_Exit_Spi_SPI_EXCLUSIVE_AREA_16
 .text.SchM_Enter_Spi_SPI_EXCLUSIVE_AREA_17
                0x3400d2a0       0x58 tmp/obj/gcc/can_freertos_customization/SchM_Spi.o
                0x3400d2a0                SchM_Enter_Spi_SPI_EXCLUSIVE_AREA_17
 .text.SchM_Exit_Spi_SPI_EXCLUSIVE_AREA_17
                0x3400d2f8       0x50 tmp/obj/gcc/can_freertos_customization/SchM_Spi.o
                0x3400d2f8                SchM_Exit_Spi_SPI_EXCLUSIVE_AREA_17
 .text.SchM_Enter_Spi_SPI_EXCLUSIVE_AREA_18
                0x3400d348       0x58 tmp/obj/gcc/can_freertos_customization/SchM_Spi.o
                0x3400d348                SchM_Enter_Spi_SPI_EXCLUSIVE_AREA_18
 .text.SchM_Exit_Spi_SPI_EXCLUSIVE_AREA_18
                0x3400d3a0       0x50 tmp/obj/gcc/can_freertos_customization/SchM_Spi.o
                0x3400d3a0                SchM_Exit_Spi_SPI_EXCLUSIVE_AREA_18
 .text.startup_go_to_user_mode
                0x3400d3f0        0xe tmp/obj/gcc/can_freertos_customization/system.o
                0x3400d3f0                startup_go_to_user_mode
 .text.default_interrupt_routine
                0x3400d3fe        0x6 tmp/obj/gcc/can_freertos_customization/system.o
                0x3400d3fe                default_interrupt_routine
 .text.Sys_GetCoreID
                0x3400d404       0x18 tmp/obj/gcc/can_freertos_customization/system.o
                0x3400d404                Sys_GetCoreID
 .text.SystemInit
                0x3400d41c       0xc8 tmp/obj/gcc/can_freertos_customization/system.o
                0x3400d41c                SystemInit
 .text.SystemWfiConfig
                0x3400d4e4       0x94 tmp/obj/gcc/can_freertos_customization/system.o
                0x3400d4e4                SystemWfiConfig
 .text.DevAssert
                0x3400d578       0x22 tmp/obj/gcc/can_freertos_customization/IntCtrl_Ip.o
 .text.IntCtrl_Ip_InstallHandlerPrivileged
                0x3400d59a       0x54 tmp/obj/gcc/can_freertos_customization/IntCtrl_Ip.o
                0x3400d59a                IntCtrl_Ip_InstallHandlerPrivileged
 .text.IntCtrl_Ip_EnableIrqPrivileged
                0x3400d5ee       0x32 tmp/obj/gcc/can_freertos_customization/IntCtrl_Ip.o
                0x3400d5ee                IntCtrl_Ip_EnableIrqPrivileged
 .text.IntCtrl_Ip_DisableIrqPrivileged
                0x3400d620       0x32 tmp/obj/gcc/can_freertos_customization/IntCtrl_Ip.o
                0x3400d620                IntCtrl_Ip_DisableIrqPrivileged
 .text.IntCtrl_Ip_SetPriorityPrivileged
                0x3400d652       0x3a tmp/obj/gcc/can_freertos_customization/IntCtrl_Ip.o
                0x3400d652                IntCtrl_Ip_SetPriorityPrivileged
 .text.IntCtrl_Ip_GetPriorityPrivileged
                0x3400d68c       0x36 tmp/obj/gcc/can_freertos_customization/IntCtrl_Ip.o
                0x3400d68c                IntCtrl_Ip_GetPriorityPrivileged
 .text.IntCtrl_Ip_ClearPendingPrivileged
                0x3400d6c2       0x32 tmp/obj/gcc/can_freertos_customization/IntCtrl_Ip.o
                0x3400d6c2                IntCtrl_Ip_ClearPendingPrivileged
 .text.IntCtrl_Ip_SetTargetCoresPrivileged
                0x3400d6f4       0x48 tmp/obj/gcc/can_freertos_customization/IntCtrl_Ip.o
                0x3400d6f4                IntCtrl_Ip_SetTargetCoresPrivileged
 .text.IntCtrl_Ip_ClearDirectedCpuInterruptPrivileged
                0x3400d73c       0x3c tmp/obj/gcc/can_freertos_customization/IntCtrl_Ip.o
                0x3400d73c                IntCtrl_Ip_ClearDirectedCpuInterruptPrivileged
 .text.IntCtrl_Ip_GetDirectedCpuInterruptPrivileged
                0x3400d778       0x44 tmp/obj/gcc/can_freertos_customization/IntCtrl_Ip.o
                0x3400d778                IntCtrl_Ip_GetDirectedCpuInterruptPrivileged
 .text.IntCtrl_Ip_GenerateDirectedCpuInterruptPrivileged
                0x3400d7bc       0x94 tmp/obj/gcc/can_freertos_customization/IntCtrl_Ip.o
                0x3400d7bc                IntCtrl_Ip_GenerateDirectedCpuInterruptPrivileged
 .text.IntCtrl_Ip_Init
                0x3400d850       0x96 tmp/obj/gcc/can_freertos_customization/IntCtrl_Ip.o
                0x3400d850                IntCtrl_Ip_Init
 .text.IntCtrl_Ip_ConfigIrqRouting
                0x3400d8e6       0x6a tmp/obj/gcc/can_freertos_customization/IntCtrl_Ip.o
                0x3400d8e6                IntCtrl_Ip_ConfigIrqRouting
 .text.IntCtrl_Ip_InstallHandler
                0x3400d950       0x24 tmp/obj/gcc/can_freertos_customization/IntCtrl_Ip.o
                0x3400d950                IntCtrl_Ip_InstallHandler
 .text.IntCtrl_Ip_EnableIrq
                0x3400d974       0x1c tmp/obj/gcc/can_freertos_customization/IntCtrl_Ip.o
                0x3400d974                IntCtrl_Ip_EnableIrq
 .text.IntCtrl_Ip_DisableIrq
                0x3400d990       0x1c tmp/obj/gcc/can_freertos_customization/IntCtrl_Ip.o
                0x3400d990                IntCtrl_Ip_DisableIrq
 .text.IntCtrl_Ip_SetPriority
                0x3400d9ac       0x26 tmp/obj/gcc/can_freertos_customization/IntCtrl_Ip.o
                0x3400d9ac                IntCtrl_Ip_SetPriority
 .text.IntCtrl_Ip_GetPriority
                0x3400d9d2       0x1e tmp/obj/gcc/can_freertos_customization/IntCtrl_Ip.o
                0x3400d9d2                IntCtrl_Ip_GetPriority
 .text.IntCtrl_Ip_ClearPending
                0x3400d9f0       0x1c tmp/obj/gcc/can_freertos_customization/IntCtrl_Ip.o
                0x3400d9f0                IntCtrl_Ip_ClearPending
 .text.IntCtrl_Ip_SetTargetCores
                0x3400da0c       0x26 tmp/obj/gcc/can_freertos_customization/IntCtrl_Ip.o
                0x3400da0c                IntCtrl_Ip_SetTargetCores
 .text.IntCtrl_Ip_ClearDirectedCpuInterrupt
                0x3400da32       0x1c tmp/obj/gcc/can_freertos_customization/IntCtrl_Ip.o
                0x3400da32                IntCtrl_Ip_ClearDirectedCpuInterrupt
 .text.IntCtrl_Ip_GetDirectedCpuInterrupt
                0x3400da4e       0x28 tmp/obj/gcc/can_freertos_customization/IntCtrl_Ip.o
                0x3400da4e                IntCtrl_Ip_GetDirectedCpuInterrupt
 .text.IntCtrl_Ip_GenerateDirectedCpuInterrupt
                0x3400da76       0x28 tmp/obj/gcc/can_freertos_customization/IntCtrl_Ip.o
                0x3400da76                IntCtrl_Ip_GenerateDirectedCpuInterrupt
 .text.Platform_Ipw_SetIrq
                0x3400da9e       0x34 tmp/obj/gcc/can_freertos_customization/Platform.o
 .text.Platform_Ipw_SetIrqPriority
                0x3400dad2       0x26 tmp/obj/gcc/can_freertos_customization/Platform.o
 .text.Platform_Ipw_GetIrqPriority
                0x3400daf8       0x1e tmp/obj/gcc/can_freertos_customization/Platform.o
 .text.Platform_Ipw_InstallIrqHandler
                0x3400db16       0x24 tmp/obj/gcc/can_freertos_customization/Platform.o
 *fill*         0x3400db3a        0x2 
 .text.Platform_Init
                0x3400db3c       0x4c tmp/obj/gcc/can_freertos_customization/Platform.o
                0x3400db3c                Platform_Init
 .text.Platform_SetIrq
                0x3400db88       0x4e tmp/obj/gcc/can_freertos_customization/Platform.o
                0x3400db88                Platform_SetIrq
 .text.Platform_SetIrqPriority
                0x3400dbd6       0x54 tmp/obj/gcc/can_freertos_customization/Platform.o
                0x3400dbd6                Platform_SetIrqPriority
 .text.Platform_GetIrqPriority
                0x3400dc2a       0x66 tmp/obj/gcc/can_freertos_customization/Platform.o
                0x3400dc2a                Platform_GetIrqPriority
 .text.Platform_InstallIrqHandler
                0x3400dc90       0x4c tmp/obj/gcc/can_freertos_customization/Platform.o
                0x3400dc90                Platform_InstallIrqHandler
 .text.Platform_Ipw_InitIntCtrl
                0x3400dcdc       0x18 tmp/obj/gcc/can_freertos_customization/Platform_Ipw.o
 .text.Platform_Ipw_Init
                0x3400dcf4       0x2a tmp/obj/gcc/can_freertos_customization/Platform_Ipw.o
                0x3400dcf4                Platform_Ipw_Init
 .text.Platform_Ipw_InitNonCore
                0x3400dd1e       0x7a tmp/obj/gcc/can_freertos_customization/Platform_Ipw.o
                0x3400dd1e                Platform_Ipw_InitNonCore
 .text.System_Ip_SetAhbSlavePriorityPrivileged
                0x3400dd98       0x3c tmp/obj/gcc/can_freertos_customization/System_Ip.o
 .text.System_Ip_ConfigIrqPrivileged
                0x3400ddd4       0x5c tmp/obj/gcc/can_freertos_customization/System_Ip.o
 .text.System_Ip_ClearWriteAbortFlagPrivileged
                0x3400de30       0x18 tmp/obj/gcc/can_freertos_customization/System_Ip.o
 .text.System_Ip_GetPlatformRevisionPrivileged
                0x3400de48       0x18 tmp/obj/gcc/can_freertos_customization/System_Ip.o
 .text.System_Ip_SetAhbSlavePriority
                0x3400de60       0x1a tmp/obj/gcc/can_freertos_customization/System_Ip.o
                0x3400de60                System_Ip_SetAhbSlavePriority
 .text.System_Ip_ConfigIrq
                0x3400de7a       0x24 tmp/obj/gcc/can_freertos_customization/System_Ip.o
                0x3400de7a                System_Ip_ConfigIrq
 .text.System_Ip_ClearWriteAbortFlag
                0x3400de9e        0xc tmp/obj/gcc/can_freertos_customization/System_Ip.o
                0x3400de9e                System_Ip_ClearWriteAbortFlag
 .text.System_Ip_GetPlatformRevision
                0x3400deaa        0xe tmp/obj/gcc/can_freertos_customization/System_Ip.o
                0x3400deaa                System_Ip_GetPlatformRevision
 .text.Can_43_LLCE_schm_read_msr
                0x3400deb8       0x14 tmp/obj/gcc/can_freertos_customization/SchM_Can_43_LLCE.o
                0x3400deb8                Can_43_LLCE_schm_read_msr
 .text.SchM_Enter_Can_43_LLCE_CAN_EXCLUSIVE_AREA_00
                0x3400decc       0x58 tmp/obj/gcc/can_freertos_customization/SchM_Can_43_LLCE.o
                0x3400decc                SchM_Enter_Can_43_LLCE_CAN_EXCLUSIVE_AREA_00
 .text.SchM_Exit_Can_43_LLCE_CAN_EXCLUSIVE_AREA_00
                0x3400df24       0x50 tmp/obj/gcc/can_freertos_customization/SchM_Can_43_LLCE.o
                0x3400df24                SchM_Exit_Can_43_LLCE_CAN_EXCLUSIVE_AREA_00
 .text.SchM_Enter_Can_43_LLCE_CAN_EXCLUSIVE_AREA_01
                0x3400df74       0x58 tmp/obj/gcc/can_freertos_customization/SchM_Can_43_LLCE.o
                0x3400df74                SchM_Enter_Can_43_LLCE_CAN_EXCLUSIVE_AREA_01
 .text.SchM_Exit_Can_43_LLCE_CAN_EXCLUSIVE_AREA_01
                0x3400dfcc       0x50 tmp/obj/gcc/can_freertos_customization/SchM_Can_43_LLCE.o
                0x3400dfcc                SchM_Exit_Can_43_LLCE_CAN_EXCLUSIVE_AREA_01
 .text.SchM_Enter_Can_43_LLCE_CAN_EXCLUSIVE_AREA_02
                0x3400e01c       0x58 tmp/obj/gcc/can_freertos_customization/SchM_Can_43_LLCE.o
                0x3400e01c                SchM_Enter_Can_43_LLCE_CAN_EXCLUSIVE_AREA_02
 .text.SchM_Exit_Can_43_LLCE_CAN_EXCLUSIVE_AREA_02
                0x3400e074       0x50 tmp/obj/gcc/can_freertos_customization/SchM_Can_43_LLCE.o
                0x3400e074                SchM_Exit_Can_43_LLCE_CAN_EXCLUSIVE_AREA_02
 .text.SchM_Enter_Can_43_LLCE_CAN_EXCLUSIVE_AREA_03
                0x3400e0c4       0x58 tmp/obj/gcc/can_freertos_customization/SchM_Can_43_LLCE.o
                0x3400e0c4                SchM_Enter_Can_43_LLCE_CAN_EXCLUSIVE_AREA_03
 .text.SchM_Exit_Can_43_LLCE_CAN_EXCLUSIVE_AREA_03
                0x3400e11c       0x50 tmp/obj/gcc/can_freertos_customization/SchM_Can_43_LLCE.o
                0x3400e11c                SchM_Exit_Can_43_LLCE_CAN_EXCLUSIVE_AREA_03
 .text.SchM_Enter_Can_43_LLCE_CAN_EXCLUSIVE_AREA_04
                0x3400e16c       0x58 tmp/obj/gcc/can_freertos_customization/SchM_Can_43_LLCE.o
                0x3400e16c                SchM_Enter_Can_43_LLCE_CAN_EXCLUSIVE_AREA_04
 .text.SchM_Exit_Can_43_LLCE_CAN_EXCLUSIVE_AREA_04
                0x3400e1c4       0x50 tmp/obj/gcc/can_freertos_customization/SchM_Can_43_LLCE.o
                0x3400e1c4                SchM_Exit_Can_43_LLCE_CAN_EXCLUSIVE_AREA_04
 .text.SchM_Enter_Can_43_LLCE_CAN_EXCLUSIVE_AREA_05
                0x3400e214       0x58 tmp/obj/gcc/can_freertos_customization/SchM_Can_43_LLCE.o
                0x3400e214                SchM_Enter_Can_43_LLCE_CAN_EXCLUSIVE_AREA_05
 .text.SchM_Exit_Can_43_LLCE_CAN_EXCLUSIVE_AREA_05
                0x3400e26c       0x50 tmp/obj/gcc/can_freertos_customization/SchM_Can_43_LLCE.o
                0x3400e26c                SchM_Exit_Can_43_LLCE_CAN_EXCLUSIVE_AREA_05
 .text.SchM_Enter_Can_43_LLCE_CAN_EXCLUSIVE_AREA_06
                0x3400e2bc       0x58 tmp/obj/gcc/can_freertos_customization/SchM_Can_43_LLCE.o
                0x3400e2bc                SchM_Enter_Can_43_LLCE_CAN_EXCLUSIVE_AREA_06
 .text.SchM_Exit_Can_43_LLCE_CAN_EXCLUSIVE_AREA_06
                0x3400e314       0x50 tmp/obj/gcc/can_freertos_customization/SchM_Can_43_LLCE.o
                0x3400e314                SchM_Exit_Can_43_LLCE_CAN_EXCLUSIVE_AREA_06
 .text.SchM_Enter_Can_43_LLCE_CAN_EXCLUSIVE_AREA_07
                0x3400e364       0x58 tmp/obj/gcc/can_freertos_customization/SchM_Can_43_LLCE.o
                0x3400e364                SchM_Enter_Can_43_LLCE_CAN_EXCLUSIVE_AREA_07
 .text.SchM_Exit_Can_43_LLCE_CAN_EXCLUSIVE_AREA_07
                0x3400e3bc       0x50 tmp/obj/gcc/can_freertos_customization/SchM_Can_43_LLCE.o
                0x3400e3bc                SchM_Exit_Can_43_LLCE_CAN_EXCLUSIVE_AREA_07
 .text.SchM_Enter_Can_43_LLCE_CAN_EXCLUSIVE_AREA_08
                0x3400e40c       0x58 tmp/obj/gcc/can_freertos_customization/SchM_Can_43_LLCE.o
                0x3400e40c                SchM_Enter_Can_43_LLCE_CAN_EXCLUSIVE_AREA_08
 .text.SchM_Exit_Can_43_LLCE_CAN_EXCLUSIVE_AREA_08
                0x3400e464       0x50 tmp/obj/gcc/can_freertos_customization/SchM_Can_43_LLCE.o
                0x3400e464                SchM_Exit_Can_43_LLCE_CAN_EXCLUSIVE_AREA_08
 .text.SchM_Enter_Can_43_LLCE_CAN_EXCLUSIVE_AREA_09
                0x3400e4b4       0x58 tmp/obj/gcc/can_freertos_customization/SchM_Can_43_LLCE.o
                0x3400e4b4                SchM_Enter_Can_43_LLCE_CAN_EXCLUSIVE_AREA_09
 .text.SchM_Exit_Can_43_LLCE_CAN_EXCLUSIVE_AREA_09
                0x3400e50c       0x50 tmp/obj/gcc/can_freertos_customization/SchM_Can_43_LLCE.o
                0x3400e50c                SchM_Exit_Can_43_LLCE_CAN_EXCLUSIVE_AREA_09
 .text.SchM_Enter_Can_43_LLCE_CAN_EXCLUSIVE_AREA_10
                0x3400e55c       0x58 tmp/obj/gcc/can_freertos_customization/SchM_Can_43_LLCE.o
                0x3400e55c                SchM_Enter_Can_43_LLCE_CAN_EXCLUSIVE_AREA_10
 .text.SchM_Exit_Can_43_LLCE_CAN_EXCLUSIVE_AREA_10
                0x3400e5b4       0x50 tmp/obj/gcc/can_freertos_customization/SchM_Can_43_LLCE.o
                0x3400e5b4                SchM_Exit_Can_43_LLCE_CAN_EXCLUSIVE_AREA_10
 .text.SchM_Enter_Can_43_LLCE_CAN_EXCLUSIVE_AREA_11
                0x3400e604       0x58 tmp/obj/gcc/can_freertos_customization/SchM_Can_43_LLCE.o
                0x3400e604                SchM_Enter_Can_43_LLCE_CAN_EXCLUSIVE_AREA_11
 .text.SchM_Exit_Can_43_LLCE_CAN_EXCLUSIVE_AREA_11
                0x3400e65c       0x50 tmp/obj/gcc/can_freertos_customization/SchM_Can_43_LLCE.o
                0x3400e65c                SchM_Exit_Can_43_LLCE_CAN_EXCLUSIVE_AREA_11
 .text.SchM_Enter_Can_43_LLCE_CAN_EXCLUSIVE_AREA_12
                0x3400e6ac       0x58 tmp/obj/gcc/can_freertos_customization/SchM_Can_43_LLCE.o
                0x3400e6ac                SchM_Enter_Can_43_LLCE_CAN_EXCLUSIVE_AREA_12
 .text.SchM_Exit_Can_43_LLCE_CAN_EXCLUSIVE_AREA_12
                0x3400e704       0x50 tmp/obj/gcc/can_freertos_customization/SchM_Can_43_LLCE.o
                0x3400e704                SchM_Exit_Can_43_LLCE_CAN_EXCLUSIVE_AREA_12
 .text.SchM_Enter_Can_43_LLCE_CAN_EXCLUSIVE_AREA_13
                0x3400e754       0x58 tmp/obj/gcc/can_freertos_customization/SchM_Can_43_LLCE.o
                0x3400e754                SchM_Enter_Can_43_LLCE_CAN_EXCLUSIVE_AREA_13
 .text.SchM_Exit_Can_43_LLCE_CAN_EXCLUSIVE_AREA_13
                0x3400e7ac       0x50 tmp/obj/gcc/can_freertos_customization/SchM_Can_43_LLCE.o
                0x3400e7ac                SchM_Exit_Can_43_LLCE_CAN_EXCLUSIVE_AREA_13
 .text.SchM_Enter_Can_43_LLCE_CAN_EXCLUSIVE_AREA_14
                0x3400e7fc       0x58 tmp/obj/gcc/can_freertos_customization/SchM_Can_43_LLCE.o
                0x3400e7fc                SchM_Enter_Can_43_LLCE_CAN_EXCLUSIVE_AREA_14
 .text.SchM_Exit_Can_43_LLCE_CAN_EXCLUSIVE_AREA_14
                0x3400e854       0x50 tmp/obj/gcc/can_freertos_customization/SchM_Can_43_LLCE.o
                0x3400e854                SchM_Exit_Can_43_LLCE_CAN_EXCLUSIVE_AREA_14
 .text.SchM_Enter_Can_43_LLCE_CAN_EXCLUSIVE_AREA_15
                0x3400e8a4       0x58 tmp/obj/gcc/can_freertos_customization/SchM_Can_43_LLCE.o
                0x3400e8a4                SchM_Enter_Can_43_LLCE_CAN_EXCLUSIVE_AREA_15
 .text.SchM_Exit_Can_43_LLCE_CAN_EXCLUSIVE_AREA_15
                0x3400e8fc       0x50 tmp/obj/gcc/can_freertos_customization/SchM_Can_43_LLCE.o
                0x3400e8fc                SchM_Exit_Can_43_LLCE_CAN_EXCLUSIVE_AREA_15
 .text.SchM_Enter_Can_43_LLCE_CAN_EXCLUSIVE_AREA_16
                0x3400e94c       0x58 tmp/obj/gcc/can_freertos_customization/SchM_Can_43_LLCE.o
                0x3400e94c                SchM_Enter_Can_43_LLCE_CAN_EXCLUSIVE_AREA_16
 .text.SchM_Exit_Can_43_LLCE_CAN_EXCLUSIVE_AREA_16
                0x3400e9a4       0x50 tmp/obj/gcc/can_freertos_customization/SchM_Can_43_LLCE.o
                0x3400e9a4                SchM_Exit_Can_43_LLCE_CAN_EXCLUSIVE_AREA_16
 .text.SchM_Enter_Can_43_LLCE_CAN_EXCLUSIVE_AREA_17
                0x3400e9f4       0x58 tmp/obj/gcc/can_freertos_customization/SchM_Can_43_LLCE.o
                0x3400e9f4                SchM_Enter_Can_43_LLCE_CAN_EXCLUSIVE_AREA_17
 .text.SchM_Exit_Can_43_LLCE_CAN_EXCLUSIVE_AREA_17
                0x3400ea4c       0x50 tmp/obj/gcc/can_freertos_customization/SchM_Can_43_LLCE.o
                0x3400ea4c                SchM_Exit_Can_43_LLCE_CAN_EXCLUSIVE_AREA_17
 .text.SchM_Enter_Can_43_LLCE_CAN_EXCLUSIVE_AREA_18
                0x3400ea9c       0x58 tmp/obj/gcc/can_freertos_customization/SchM_Can_43_LLCE.o
                0x3400ea9c                SchM_Enter_Can_43_LLCE_CAN_EXCLUSIVE_AREA_18
 .text.SchM_Exit_Can_43_LLCE_CAN_EXCLUSIVE_AREA_18
                0x3400eaf4       0x50 tmp/obj/gcc/can_freertos_customization/SchM_Can_43_LLCE.o
                0x3400eaf4                SchM_Exit_Can_43_LLCE_CAN_EXCLUSIVE_AREA_18
 .text.SchM_Enter_Can_43_LLCE_CAN_EXCLUSIVE_AREA_19
                0x3400eb44       0x58 tmp/obj/gcc/can_freertos_customization/SchM_Can_43_LLCE.o
                0x3400eb44                SchM_Enter_Can_43_LLCE_CAN_EXCLUSIVE_AREA_19
 .text.SchM_Exit_Can_43_LLCE_CAN_EXCLUSIVE_AREA_19
                0x3400eb9c       0x50 tmp/obj/gcc/can_freertos_customization/SchM_Can_43_LLCE.o
                0x3400eb9c                SchM_Exit_Can_43_LLCE_CAN_EXCLUSIVE_AREA_19
 .text.SchM_Enter_Can_43_LLCE_CAN_EXCLUSIVE_AREA_20
                0x3400ebec       0x58 tmp/obj/gcc/can_freertos_customization/SchM_Can_43_LLCE.o
                0x3400ebec                SchM_Enter_Can_43_LLCE_CAN_EXCLUSIVE_AREA_20
 .text.SchM_Exit_Can_43_LLCE_CAN_EXCLUSIVE_AREA_20
                0x3400ec44       0x50 tmp/obj/gcc/can_freertos_customization/SchM_Can_43_LLCE.o
                0x3400ec44                SchM_Exit_Can_43_LLCE_CAN_EXCLUSIVE_AREA_20
 .text.SchM_Enter_Can_43_LLCE_CAN_EXCLUSIVE_AREA_21
                0x3400ec94       0x58 tmp/obj/gcc/can_freertos_customization/SchM_Can_43_LLCE.o
                0x3400ec94                SchM_Enter_Can_43_LLCE_CAN_EXCLUSIVE_AREA_21
 .text.SchM_Exit_Can_43_LLCE_CAN_EXCLUSIVE_AREA_21
                0x3400ecec       0x50 tmp/obj/gcc/can_freertos_customization/SchM_Can_43_LLCE.o
                0x3400ecec                SchM_Exit_Can_43_LLCE_CAN_EXCLUSIVE_AREA_21
 .text.SchM_Enter_Can_43_LLCE_CAN_EXCLUSIVE_AREA_22
                0x3400ed3c       0x58 tmp/obj/gcc/can_freertos_customization/SchM_Can_43_LLCE.o
                0x3400ed3c                SchM_Enter_Can_43_LLCE_CAN_EXCLUSIVE_AREA_22
 .text.SchM_Exit_Can_43_LLCE_CAN_EXCLUSIVE_AREA_22
                0x3400ed94       0x50 tmp/obj/gcc/can_freertos_customization/SchM_Can_43_LLCE.o
                0x3400ed94                SchM_Exit_Can_43_LLCE_CAN_EXCLUSIVE_AREA_22
 .text.SchM_Enter_Can_43_LLCE_CAN_EXCLUSIVE_AREA_23
                0x3400ede4       0x58 tmp/obj/gcc/can_freertos_customization/SchM_Can_43_LLCE.o
                0x3400ede4                SchM_Enter_Can_43_LLCE_CAN_EXCLUSIVE_AREA_23
 .text.SchM_Exit_Can_43_LLCE_CAN_EXCLUSIVE_AREA_23
                0x3400ee3c       0x50 tmp/obj/gcc/can_freertos_customization/SchM_Can_43_LLCE.o
                0x3400ee3c                SchM_Exit_Can_43_LLCE_CAN_EXCLUSIVE_AREA_23
 .text.SchM_Enter_Can_43_LLCE_CAN_EXCLUSIVE_AREA_24
                0x3400ee8c       0x58 tmp/obj/gcc/can_freertos_customization/SchM_Can_43_LLCE.o
                0x3400ee8c                SchM_Enter_Can_43_LLCE_CAN_EXCLUSIVE_AREA_24
 .text.SchM_Exit_Can_43_LLCE_CAN_EXCLUSIVE_AREA_24
                0x3400eee4       0x50 tmp/obj/gcc/can_freertos_customization/SchM_Can_43_LLCE.o
                0x3400eee4                SchM_Exit_Can_43_LLCE_CAN_EXCLUSIVE_AREA_24
 .text.SchM_Enter_Can_43_LLCE_CAN_EXCLUSIVE_AREA_25
                0x3400ef34       0x58 tmp/obj/gcc/can_freertos_customization/SchM_Can_43_LLCE.o
                0x3400ef34                SchM_Enter_Can_43_LLCE_CAN_EXCLUSIVE_AREA_25
 .text.SchM_Exit_Can_43_LLCE_CAN_EXCLUSIVE_AREA_25
                0x3400ef8c       0x50 tmp/obj/gcc/can_freertos_customization/SchM_Can_43_LLCE.o
                0x3400ef8c                SchM_Exit_Can_43_LLCE_CAN_EXCLUSIVE_AREA_25
 .text.SchM_Enter_Can_43_LLCE_CAN_EXCLUSIVE_AREA_26
                0x3400efdc       0x58 tmp/obj/gcc/can_freertos_customization/SchM_Can_43_LLCE.o
                0x3400efdc                SchM_Enter_Can_43_LLCE_CAN_EXCLUSIVE_AREA_26
 .text.SchM_Exit_Can_43_LLCE_CAN_EXCLUSIVE_AREA_26
                0x3400f034       0x50 tmp/obj/gcc/can_freertos_customization/SchM_Can_43_LLCE.o
                0x3400f034                SchM_Exit_Can_43_LLCE_CAN_EXCLUSIVE_AREA_26
 .text.SchM_Enter_Can_43_LLCE_CAN_EXCLUSIVE_AREA_27
                0x3400f084       0x58 tmp/obj/gcc/can_freertos_customization/SchM_Can_43_LLCE.o
                0x3400f084                SchM_Enter_Can_43_LLCE_CAN_EXCLUSIVE_AREA_27
 .text.SchM_Exit_Can_43_LLCE_CAN_EXCLUSIVE_AREA_27
                0x3400f0dc       0x50 tmp/obj/gcc/can_freertos_customization/SchM_Can_43_LLCE.o
                0x3400f0dc                SchM_Exit_Can_43_LLCE_CAN_EXCLUSIVE_AREA_27
 .text.SchM_Enter_Can_43_LLCE_CAN_EXCLUSIVE_AREA_28
                0x3400f12c       0x58 tmp/obj/gcc/can_freertos_customization/SchM_Can_43_LLCE.o
                0x3400f12c                SchM_Enter_Can_43_LLCE_CAN_EXCLUSIVE_AREA_28
 .text.SchM_Exit_Can_43_LLCE_CAN_EXCLUSIVE_AREA_28
                0x3400f184       0x50 tmp/obj/gcc/can_freertos_customization/SchM_Can_43_LLCE.o
                0x3400f184                SchM_Exit_Can_43_LLCE_CAN_EXCLUSIVE_AREA_28
 .text.SchM_Enter_Can_43_LLCE_CAN_EXCLUSIVE_AREA_29
                0x3400f1d4       0x58 tmp/obj/gcc/can_freertos_customization/SchM_Can_43_LLCE.o
                0x3400f1d4                SchM_Enter_Can_43_LLCE_CAN_EXCLUSIVE_AREA_29
 .text.SchM_Exit_Can_43_LLCE_CAN_EXCLUSIVE_AREA_29
                0x3400f22c       0x50 tmp/obj/gcc/can_freertos_customization/SchM_Can_43_LLCE.o
                0x3400f22c                SchM_Exit_Can_43_LLCE_CAN_EXCLUSIVE_AREA_29
 .text.SchM_Enter_Can_43_LLCE_CAN_EXCLUSIVE_AREA_30
                0x3400f27c       0x58 tmp/obj/gcc/can_freertos_customization/SchM_Can_43_LLCE.o
                0x3400f27c                SchM_Enter_Can_43_LLCE_CAN_EXCLUSIVE_AREA_30
 .text.SchM_Exit_Can_43_LLCE_CAN_EXCLUSIVE_AREA_30
                0x3400f2d4       0x50 tmp/obj/gcc/can_freertos_customization/SchM_Can_43_LLCE.o
                0x3400f2d4                SchM_Exit_Can_43_LLCE_CAN_EXCLUSIVE_AREA_30
 .text.SchM_Enter_Can_43_LLCE_CAN_EXCLUSIVE_AREA_31
                0x3400f324       0x58 tmp/obj/gcc/can_freertos_customization/SchM_Can_43_LLCE.o
                0x3400f324                SchM_Enter_Can_43_LLCE_CAN_EXCLUSIVE_AREA_31
 .text.SchM_Exit_Can_43_LLCE_CAN_EXCLUSIVE_AREA_31
                0x3400f37c       0x50 tmp/obj/gcc/can_freertos_customization/SchM_Can_43_LLCE.o
                0x3400f37c                SchM_Exit_Can_43_LLCE_CAN_EXCLUSIVE_AREA_31
 .text.SchM_Enter_Can_43_LLCE_CAN_EXCLUSIVE_AREA_32
                0x3400f3cc       0x58 tmp/obj/gcc/can_freertos_customization/SchM_Can_43_LLCE.o
                0x3400f3cc                SchM_Enter_Can_43_LLCE_CAN_EXCLUSIVE_AREA_32
 .text.SchM_Exit_Can_43_LLCE_CAN_EXCLUSIVE_AREA_32
                0x3400f424       0x50 tmp/obj/gcc/can_freertos_customization/SchM_Can_43_LLCE.o
                0x3400f424                SchM_Exit_Can_43_LLCE_CAN_EXCLUSIVE_AREA_32
 .text.SchM_Enter_Can_43_LLCE_CAN_EXCLUSIVE_AREA_33
                0x3400f474       0x58 tmp/obj/gcc/can_freertos_customization/SchM_Can_43_LLCE.o
                0x3400f474                SchM_Enter_Can_43_LLCE_CAN_EXCLUSIVE_AREA_33
 .text.SchM_Exit_Can_43_LLCE_CAN_EXCLUSIVE_AREA_33
                0x3400f4cc       0x50 tmp/obj/gcc/can_freertos_customization/SchM_Can_43_LLCE.o
                0x3400f4cc                SchM_Exit_Can_43_LLCE_CAN_EXCLUSIVE_AREA_33
 .text.SchM_Enter_Can_43_LLCE_CAN_EXCLUSIVE_AREA_34
                0x3400f51c       0x58 tmp/obj/gcc/can_freertos_customization/SchM_Can_43_LLCE.o
                0x3400f51c                SchM_Enter_Can_43_LLCE_CAN_EXCLUSIVE_AREA_34
 .text.SchM_Exit_Can_43_LLCE_CAN_EXCLUSIVE_AREA_34
                0x3400f574       0x50 tmp/obj/gcc/can_freertos_customization/SchM_Can_43_LLCE.o
                0x3400f574                SchM_Exit_Can_43_LLCE_CAN_EXCLUSIVE_AREA_34
 .text.SchM_Enter_Can_43_LLCE_CAN_EXCLUSIVE_AREA_35
                0x3400f5c4       0x58 tmp/obj/gcc/can_freertos_customization/SchM_Can_43_LLCE.o
                0x3400f5c4                SchM_Enter_Can_43_LLCE_CAN_EXCLUSIVE_AREA_35
 .text.SchM_Exit_Can_43_LLCE_CAN_EXCLUSIVE_AREA_35
                0x3400f61c       0x50 tmp/obj/gcc/can_freertos_customization/SchM_Can_43_LLCE.o
                0x3400f61c                SchM_Exit_Can_43_LLCE_CAN_EXCLUSIVE_AREA_35
 .text.SchM_Enter_Can_43_LLCE_CAN_EXCLUSIVE_AREA_36
                0x3400f66c       0x58 tmp/obj/gcc/can_freertos_customization/SchM_Can_43_LLCE.o
                0x3400f66c                SchM_Enter_Can_43_LLCE_CAN_EXCLUSIVE_AREA_36
 .text.SchM_Exit_Can_43_LLCE_CAN_EXCLUSIVE_AREA_36
                0x3400f6c4       0x50 tmp/obj/gcc/can_freertos_customization/SchM_Can_43_LLCE.o
                0x3400f6c4                SchM_Exit_Can_43_LLCE_CAN_EXCLUSIVE_AREA_36
 .text.SchM_Enter_Can_43_LLCE_CAN_EXCLUSIVE_AREA_37
                0x3400f714       0x58 tmp/obj/gcc/can_freertos_customization/SchM_Can_43_LLCE.o
                0x3400f714                SchM_Enter_Can_43_LLCE_CAN_EXCLUSIVE_AREA_37
 .text.SchM_Exit_Can_43_LLCE_CAN_EXCLUSIVE_AREA_37
                0x3400f76c       0x50 tmp/obj/gcc/can_freertos_customization/SchM_Can_43_LLCE.o
                0x3400f76c                SchM_Exit_Can_43_LLCE_CAN_EXCLUSIVE_AREA_37
 .text.SchM_Enter_Can_43_LLCE_CAN_EXCLUSIVE_AREA_38
                0x3400f7bc       0x58 tmp/obj/gcc/can_freertos_customization/SchM_Can_43_LLCE.o
                0x3400f7bc                SchM_Enter_Can_43_LLCE_CAN_EXCLUSIVE_AREA_38
 .text.SchM_Exit_Can_43_LLCE_CAN_EXCLUSIVE_AREA_38
                0x3400f814       0x50 tmp/obj/gcc/can_freertos_customization/SchM_Can_43_LLCE.o
                0x3400f814                SchM_Exit_Can_43_LLCE_CAN_EXCLUSIVE_AREA_38
 .text.SchM_Enter_Can_43_LLCE_CAN_EXCLUSIVE_AREA_39
                0x3400f864       0x58 tmp/obj/gcc/can_freertos_customization/SchM_Can_43_LLCE.o
                0x3400f864                SchM_Enter_Can_43_LLCE_CAN_EXCLUSIVE_AREA_39
 .text.SchM_Exit_Can_43_LLCE_CAN_EXCLUSIVE_AREA_39
                0x3400f8bc       0x50 tmp/obj/gcc/can_freertos_customization/SchM_Can_43_LLCE.o
                0x3400f8bc                SchM_Exit_Can_43_LLCE_CAN_EXCLUSIVE_AREA_39
 .text.SchM_Enter_Can_43_LLCE_CAN_EXCLUSIVE_AREA_40
                0x3400f90c       0x58 tmp/obj/gcc/can_freertos_customization/SchM_Can_43_LLCE.o
                0x3400f90c                SchM_Enter_Can_43_LLCE_CAN_EXCLUSIVE_AREA_40
 .text.SchM_Exit_Can_43_LLCE_CAN_EXCLUSIVE_AREA_40
                0x3400f964       0x50 tmp/obj/gcc/can_freertos_customization/SchM_Can_43_LLCE.o
                0x3400f964                SchM_Exit_Can_43_LLCE_CAN_EXCLUSIVE_AREA_40
 .text.SchM_Enter_Can_43_LLCE_CAN_EXCLUSIVE_AREA_41
                0x3400f9b4       0x58 tmp/obj/gcc/can_freertos_customization/SchM_Can_43_LLCE.o
                0x3400f9b4                SchM_Enter_Can_43_LLCE_CAN_EXCLUSIVE_AREA_41
 .text.SchM_Exit_Can_43_LLCE_CAN_EXCLUSIVE_AREA_41
                0x3400fa0c       0x50 tmp/obj/gcc/can_freertos_customization/SchM_Can_43_LLCE.o
                0x3400fa0c                SchM_Exit_Can_43_LLCE_CAN_EXCLUSIVE_AREA_41
 .text.SchM_Enter_Can_43_LLCE_CAN_EXCLUSIVE_AREA_42
                0x3400fa5c       0x58 tmp/obj/gcc/can_freertos_customization/SchM_Can_43_LLCE.o
                0x3400fa5c                SchM_Enter_Can_43_LLCE_CAN_EXCLUSIVE_AREA_42
 .text.SchM_Exit_Can_43_LLCE_CAN_EXCLUSIVE_AREA_42
                0x3400fab4       0x50 tmp/obj/gcc/can_freertos_customization/SchM_Can_43_LLCE.o
                0x3400fab4                SchM_Exit_Can_43_LLCE_CAN_EXCLUSIVE_AREA_42
 .text.SchM_Enter_Can_43_LLCE_CAN_EXCLUSIVE_AREA_43
                0x3400fb04       0x58 tmp/obj/gcc/can_freertos_customization/SchM_Can_43_LLCE.o
                0x3400fb04                SchM_Enter_Can_43_LLCE_CAN_EXCLUSIVE_AREA_43
 .text.SchM_Exit_Can_43_LLCE_CAN_EXCLUSIVE_AREA_43
                0x3400fb5c       0x50 tmp/obj/gcc/can_freertos_customization/SchM_Can_43_LLCE.o
                0x3400fb5c                SchM_Exit_Can_43_LLCE_CAN_EXCLUSIVE_AREA_43
 .text.SchM_Enter_Can_43_LLCE_CAN_EXCLUSIVE_AREA_44
                0x3400fbac       0x58 tmp/obj/gcc/can_freertos_customization/SchM_Can_43_LLCE.o
                0x3400fbac                SchM_Enter_Can_43_LLCE_CAN_EXCLUSIVE_AREA_44
 .text.SchM_Exit_Can_43_LLCE_CAN_EXCLUSIVE_AREA_44
                0x3400fc04       0x50 tmp/obj/gcc/can_freertos_customization/SchM_Can_43_LLCE.o
                0x3400fc04                SchM_Exit_Can_43_LLCE_CAN_EXCLUSIVE_AREA_44
 .text.SchM_Enter_Can_43_LLCE_CAN_EXCLUSIVE_AREA_45
                0x3400fc54       0x58 tmp/obj/gcc/can_freertos_customization/SchM_Can_43_LLCE.o
                0x3400fc54                SchM_Enter_Can_43_LLCE_CAN_EXCLUSIVE_AREA_45
 .text.SchM_Exit_Can_43_LLCE_CAN_EXCLUSIVE_AREA_45
                0x3400fcac       0x50 tmp/obj/gcc/can_freertos_customization/SchM_Can_43_LLCE.o
                0x3400fcac                SchM_Exit_Can_43_LLCE_CAN_EXCLUSIVE_AREA_45
 .text.SchM_Enter_Can_43_LLCE_CAN_EXCLUSIVE_AREA_46
                0x3400fcfc       0x58 tmp/obj/gcc/can_freertos_customization/SchM_Can_43_LLCE.o
                0x3400fcfc                SchM_Enter_Can_43_LLCE_CAN_EXCLUSIVE_AREA_46
 .text.SchM_Exit_Can_43_LLCE_CAN_EXCLUSIVE_AREA_46
                0x3400fd54       0x50 tmp/obj/gcc/can_freertos_customization/SchM_Can_43_LLCE.o
                0x3400fd54                SchM_Exit_Can_43_LLCE_CAN_EXCLUSIVE_AREA_46
 .text.SchM_Enter_Can_43_LLCE_CAN_EXCLUSIVE_AREA_47
                0x3400fda4       0x58 tmp/obj/gcc/can_freertos_customization/SchM_Can_43_LLCE.o
                0x3400fda4                SchM_Enter_Can_43_LLCE_CAN_EXCLUSIVE_AREA_47
 .text.SchM_Exit_Can_43_LLCE_CAN_EXCLUSIVE_AREA_47
                0x3400fdfc       0x50 tmp/obj/gcc/can_freertos_customization/SchM_Can_43_LLCE.o
                0x3400fdfc                SchM_Exit_Can_43_LLCE_CAN_EXCLUSIVE_AREA_47
 .text.SchM_Enter_Can_43_LLCE_CAN_EXCLUSIVE_AREA_48
                0x3400fe4c       0x58 tmp/obj/gcc/can_freertos_customization/SchM_Can_43_LLCE.o
                0x3400fe4c                SchM_Enter_Can_43_LLCE_CAN_EXCLUSIVE_AREA_48
 .text.SchM_Exit_Can_43_LLCE_CAN_EXCLUSIVE_AREA_48
                0x3400fea4       0x50 tmp/obj/gcc/can_freertos_customization/SchM_Can_43_LLCE.o
                0x3400fea4                SchM_Exit_Can_43_LLCE_CAN_EXCLUSIVE_AREA_48
 .text.SchM_Enter_Can_43_LLCE_CAN_EXCLUSIVE_AREA_49
                0x3400fef4       0x58 tmp/obj/gcc/can_freertos_customization/SchM_Can_43_LLCE.o
                0x3400fef4                SchM_Enter_Can_43_LLCE_CAN_EXCLUSIVE_AREA_49
 .text.SchM_Exit_Can_43_LLCE_CAN_EXCLUSIVE_AREA_49
                0x3400ff4c       0x50 tmp/obj/gcc/can_freertos_customization/SchM_Can_43_LLCE.o
                0x3400ff4c                SchM_Exit_Can_43_LLCE_CAN_EXCLUSIVE_AREA_49
 .text.SchM_Enter_Can_43_LLCE_CAN_EXCLUSIVE_AREA_50
                0x3400ff9c       0x58 tmp/obj/gcc/can_freertos_customization/SchM_Can_43_LLCE.o
                0x3400ff9c                SchM_Enter_Can_43_LLCE_CAN_EXCLUSIVE_AREA_50
 .text.SchM_Exit_Can_43_LLCE_CAN_EXCLUSIVE_AREA_50
                0x3400fff4       0x50 tmp/obj/gcc/can_freertos_customization/SchM_Can_43_LLCE.o
                0x3400fff4                SchM_Exit_Can_43_LLCE_CAN_EXCLUSIVE_AREA_50
 .text.SchM_Enter_Can_43_LLCE_CAN_EXCLUSIVE_AREA_51
                0x34010044       0x58 tmp/obj/gcc/can_freertos_customization/SchM_Can_43_LLCE.o
                0x34010044                SchM_Enter_Can_43_LLCE_CAN_EXCLUSIVE_AREA_51
 .text.SchM_Exit_Can_43_LLCE_CAN_EXCLUSIVE_AREA_51
                0x3401009c       0x50 tmp/obj/gcc/can_freertos_customization/SchM_Can_43_LLCE.o
                0x3401009c                SchM_Exit_Can_43_LLCE_CAN_EXCLUSIVE_AREA_51
 .text.SchM_Enter_Can_43_LLCE_CAN_EXCLUSIVE_AREA_52
                0x340100ec       0x58 tmp/obj/gcc/can_freertos_customization/SchM_Can_43_LLCE.o
                0x340100ec                SchM_Enter_Can_43_LLCE_CAN_EXCLUSIVE_AREA_52
 .text.SchM_Exit_Can_43_LLCE_CAN_EXCLUSIVE_AREA_52
                0x34010144       0x50 tmp/obj/gcc/can_freertos_customization/SchM_Can_43_LLCE.o
                0x34010144                SchM_Exit_Can_43_LLCE_CAN_EXCLUSIVE_AREA_52
 .text.SchM_Enter_Can_43_LLCE_CAN_EXCLUSIVE_AREA_53
                0x34010194       0x58 tmp/obj/gcc/can_freertos_customization/SchM_Can_43_LLCE.o
                0x34010194                SchM_Enter_Can_43_LLCE_CAN_EXCLUSIVE_AREA_53
 .text.SchM_Exit_Can_43_LLCE_CAN_EXCLUSIVE_AREA_53
                0x340101ec       0x50 tmp/obj/gcc/can_freertos_customization/SchM_Can_43_LLCE.o
                0x340101ec                SchM_Exit_Can_43_LLCE_CAN_EXCLUSIVE_AREA_53
 .text.SchM_Enter_Can_43_LLCE_CAN_EXCLUSIVE_AREA_54
                0x3401023c       0x58 tmp/obj/gcc/can_freertos_customization/SchM_Can_43_LLCE.o
                0x3401023c                SchM_Enter_Can_43_LLCE_CAN_EXCLUSIVE_AREA_54
 .text.SchM_Exit_Can_43_LLCE_CAN_EXCLUSIVE_AREA_54
                0x34010294       0x50 tmp/obj/gcc/can_freertos_customization/SchM_Can_43_LLCE.o
                0x34010294                SchM_Exit_Can_43_LLCE_CAN_EXCLUSIVE_AREA_54
 .text.SchM_Enter_Can_43_LLCE_CAN_EXCLUSIVE_AREA_55
                0x340102e4       0x58 tmp/obj/gcc/can_freertos_customization/SchM_Can_43_LLCE.o
                0x340102e4                SchM_Enter_Can_43_LLCE_CAN_EXCLUSIVE_AREA_55
 .text.SchM_Exit_Can_43_LLCE_CAN_EXCLUSIVE_AREA_55
                0x3401033c       0x50 tmp/obj/gcc/can_freertos_customization/SchM_Can_43_LLCE.o
                0x3401033c                SchM_Exit_Can_43_LLCE_CAN_EXCLUSIVE_AREA_55
 .text.SchM_Enter_Can_43_LLCE_CAN_EXCLUSIVE_AREA_56
                0x3401038c       0x58 tmp/obj/gcc/can_freertos_customization/SchM_Can_43_LLCE.o
                0x3401038c                SchM_Enter_Can_43_LLCE_CAN_EXCLUSIVE_AREA_56
 .text.SchM_Exit_Can_43_LLCE_CAN_EXCLUSIVE_AREA_56
                0x340103e4       0x50 tmp/obj/gcc/can_freertos_customization/SchM_Can_43_LLCE.o
                0x340103e4                SchM_Exit_Can_43_LLCE_CAN_EXCLUSIVE_AREA_56
 .text.SchM_Enter_Can_43_LLCE_CAN_EXCLUSIVE_AREA_57
                0x34010434       0x58 tmp/obj/gcc/can_freertos_customization/SchM_Can_43_LLCE.o
                0x34010434                SchM_Enter_Can_43_LLCE_CAN_EXCLUSIVE_AREA_57
 .text.SchM_Exit_Can_43_LLCE_CAN_EXCLUSIVE_AREA_57
                0x3401048c       0x50 tmp/obj/gcc/can_freertos_customization/SchM_Can_43_LLCE.o
                0x3401048c                SchM_Exit_Can_43_LLCE_CAN_EXCLUSIVE_AREA_57
 .text.SchM_Enter_Can_43_LLCE_CAN_EXCLUSIVE_AREA_58
                0x340104dc       0x58 tmp/obj/gcc/can_freertos_customization/SchM_Can_43_LLCE.o
                0x340104dc                SchM_Enter_Can_43_LLCE_CAN_EXCLUSIVE_AREA_58
 .text.SchM_Exit_Can_43_LLCE_CAN_EXCLUSIVE_AREA_58
                0x34010534       0x50 tmp/obj/gcc/can_freertos_customization/SchM_Can_43_LLCE.o
                0x34010534                SchM_Exit_Can_43_LLCE_CAN_EXCLUSIVE_AREA_58
 .text.SchM_Enter_Can_43_LLCE_CAN_EXCLUSIVE_AREA_59
                0x34010584       0x58 tmp/obj/gcc/can_freertos_customization/SchM_Can_43_LLCE.o
                0x34010584                SchM_Enter_Can_43_LLCE_CAN_EXCLUSIVE_AREA_59
 .text.SchM_Exit_Can_43_LLCE_CAN_EXCLUSIVE_AREA_59
                0x340105dc       0x50 tmp/obj/gcc/can_freertos_customization/SchM_Can_43_LLCE.o
                0x340105dc                SchM_Exit_Can_43_LLCE_CAN_EXCLUSIVE_AREA_59
 .text.SchM_Enter_Can_43_LLCE_CAN_EXCLUSIVE_AREA_60
                0x3401062c       0x58 tmp/obj/gcc/can_freertos_customization/SchM_Can_43_LLCE.o
                0x3401062c                SchM_Enter_Can_43_LLCE_CAN_EXCLUSIVE_AREA_60
 .text.SchM_Exit_Can_43_LLCE_CAN_EXCLUSIVE_AREA_60
                0x34010684       0x50 tmp/obj/gcc/can_freertos_customization/SchM_Can_43_LLCE.o
                0x34010684                SchM_Exit_Can_43_LLCE_CAN_EXCLUSIVE_AREA_60
 .text.SchM_Enter_Can_43_LLCE_CAN_EXCLUSIVE_AREA_61
                0x340106d4       0x58 tmp/obj/gcc/can_freertos_customization/SchM_Can_43_LLCE.o
                0x340106d4                SchM_Enter_Can_43_LLCE_CAN_EXCLUSIVE_AREA_61
 .text.SchM_Exit_Can_43_LLCE_CAN_EXCLUSIVE_AREA_61
                0x3401072c       0x50 tmp/obj/gcc/can_freertos_customization/SchM_Can_43_LLCE.o
                0x3401072c                SchM_Exit_Can_43_LLCE_CAN_EXCLUSIVE_AREA_61
 .text.SchM_Enter_Can_43_LLCE_CAN_EXCLUSIVE_AREA_62
                0x3401077c       0x58 tmp/obj/gcc/can_freertos_customization/SchM_Can_43_LLCE.o
                0x3401077c                SchM_Enter_Can_43_LLCE_CAN_EXCLUSIVE_AREA_62
 .text.SchM_Exit_Can_43_LLCE_CAN_EXCLUSIVE_AREA_62
                0x340107d4       0x50 tmp/obj/gcc/can_freertos_customization/SchM_Can_43_LLCE.o
                0x340107d4                SchM_Exit_Can_43_LLCE_CAN_EXCLUSIVE_AREA_62
 .text.SchM_Enter_Can_43_LLCE_CAN_EXCLUSIVE_AREA_63
                0x34010824       0x58 tmp/obj/gcc/can_freertos_customization/SchM_Can_43_LLCE.o
                0x34010824                SchM_Enter_Can_43_LLCE_CAN_EXCLUSIVE_AREA_63
 .text.SchM_Exit_Can_43_LLCE_CAN_EXCLUSIVE_AREA_63
                0x3401087c       0x50 tmp/obj/gcc/can_freertos_customization/SchM_Can_43_LLCE.o
                0x3401087c                SchM_Exit_Can_43_LLCE_CAN_EXCLUSIVE_AREA_63
 .text.SchM_Enter_Can_43_LLCE_CAN_EXCLUSIVE_AREA_64
                0x340108cc       0x58 tmp/obj/gcc/can_freertos_customization/SchM_Can_43_LLCE.o
                0x340108cc                SchM_Enter_Can_43_LLCE_CAN_EXCLUSIVE_AREA_64
 .text.SchM_Exit_Can_43_LLCE_CAN_EXCLUSIVE_AREA_64
                0x34010924       0x50 tmp/obj/gcc/can_freertos_customization/SchM_Can_43_LLCE.o
                0x34010924                SchM_Exit_Can_43_LLCE_CAN_EXCLUSIVE_AREA_64
 .text.Can_43_LLCE_GetCurrentConfig
                0x34010974       0x18 tmp/obj/gcc/can_freertos_customization/Can_43_LLCE.o
 .text.Can_ValidateController
                0x3401098c       0x6c tmp/obj/gcc/can_freertos_customization/Can_43_LLCE.o
 .text.Can_43_LLCE_GetVersionInfo
                0x340109f8       0x38 tmp/obj/gcc/can_freertos_customization/Can_43_LLCE.o
                0x340109f8                Can_43_LLCE_GetVersionInfo
 .text.Can_43_LLCE_Init
                0x34010a30       0xbc tmp/obj/gcc/can_freertos_customization/Can_43_LLCE.o
                0x34010a30                Can_43_LLCE_Init
 .text.Can_43_LLCE_DeInit
                0x34010aec      0x108 tmp/obj/gcc/can_freertos_customization/Can_43_LLCE.o
                0x34010aec                Can_43_LLCE_DeInit
 .text.Can_43_LLCE_SetControllerMode
                0x34010bf4       0xa8 tmp/obj/gcc/can_freertos_customization/Can_43_LLCE.o
                0x34010bf4                Can_43_LLCE_SetControllerMode
 .text.Can_43_LLCE_GetControllerMode
                0x34010c9c       0x3e tmp/obj/gcc/can_freertos_customization/Can_43_LLCE.o
                0x34010c9c                Can_43_LLCE_GetControllerMode
 .text.Can_43_LLCE_DisableControllerInterrupts
                0x34010cda       0x2a tmp/obj/gcc/can_freertos_customization/Can_43_LLCE.o
                0x34010cda                Can_43_LLCE_DisableControllerInterrupts
 .text.Can_43_LLCE_EnableControllerInterrupts
                0x34010d04       0x2a tmp/obj/gcc/can_freertos_customization/Can_43_LLCE.o
                0x34010d04                Can_43_LLCE_EnableControllerInterrupts
 *fill*         0x34010d2e        0x2 
 .text.Can_43_LLCE_Write
                0x34010d30       0xf4 tmp/obj/gcc/can_freertos_customization/Can_43_LLCE.o
                0x34010d30                Can_43_LLCE_Write
 .text.Can_43_LLCE_SendWriteCmd
                0x34010e24       0x8c tmp/obj/gcc/can_freertos_customization/Can_43_LLCE.o
 .text.Can_43_LLCE_MainFunction_Write
                0x34010eb0        0xe tmp/obj/gcc/can_freertos_customization/Can_43_LLCE.o
                0x34010eb0                Can_43_LLCE_MainFunction_Write
 .text.Can_43_LLCE_MainFunction_Read
                0x34010ebe        0xe tmp/obj/gcc/can_freertos_customization/Can_43_LLCE.o
                0x34010ebe                Can_43_LLCE_MainFunction_Read
 .text.Can_43_LLCE_MainFunction_BusOff
                0x34010ecc        0xe tmp/obj/gcc/can_freertos_customization/Can_43_LLCE.o
                0x34010ecc                Can_43_LLCE_MainFunction_BusOff
 *fill*         0x34010eda        0x2 
 .text.Can_43_LLCE_MainFunction_Mode
                0x34010edc       0x60 tmp/obj/gcc/can_freertos_customization/Can_43_LLCE.o
                0x34010edc                Can_43_LLCE_MainFunction_Mode
 .text.Can_43_LLCE_CheckWakeup
                0x34010f3c       0x2c tmp/obj/gcc/can_freertos_customization/Can_43_LLCE.o
                0x34010f3c                Can_43_LLCE_CheckWakeup
 .text.Can_43_LLCE_SetBaudrate
                0x34010f68       0x66 tmp/obj/gcc/can_freertos_customization/Can_43_LLCE.o
                0x34010f68                Can_43_LLCE_SetBaudrate
 *fill*         0x34010fce        0x2 
 .text.Can_43_LLCE_SendSetBaudrateCmd
                0x34010fd0       0x98 tmp/obj/gcc/can_freertos_customization/Can_43_LLCE.o
 .text.Can_43_LLCE_GetControllerErrorState
                0x34011068       0x3e tmp/obj/gcc/can_freertos_customization/Can_43_LLCE.o
                0x34011068                Can_43_LLCE_GetControllerErrorState
 .text.Can_43_LLCE_GetControllerRxErrorCounter
                0x340110a6       0x3e tmp/obj/gcc/can_freertos_customization/Can_43_LLCE.o
                0x340110a6                Can_43_LLCE_GetControllerRxErrorCounter
 .text.Can_43_LLCE_GetControllerTxErrorCounter
                0x340110e4       0x3e tmp/obj/gcc/can_freertos_customization/Can_43_LLCE.o
                0x340110e4                Can_43_LLCE_GetControllerTxErrorCounter
 .text.Can_43_LLCE_GetControllerStatus
                0x34011122       0x38 tmp/obj/gcc/can_freertos_customization/Can_43_LLCE.o
                0x34011122                Can_43_LLCE_GetControllerStatus
 .text.Can_43_LLCE_GetFwVersion
                0x3401115a       0x24 tmp/obj/gcc/can_freertos_customization/Can_43_LLCE.o
                0x3401115a                Can_43_LLCE_GetFwVersion
 .text.Can_43_LLCE_SetFilter
                0x3401117e       0x48 tmp/obj/gcc/can_freertos_customization/Can_43_LLCE.o
                0x3401117e                Can_43_LLCE_SetFilter
 .text.Can_43_LLCE_SetFilterAtAddress
                0x340111c6       0x50 tmp/obj/gcc/can_freertos_customization/Can_43_LLCE.o
                0x340111c6                Can_43_LLCE_SetFilterAtAddress
 .text.Can_43_LLCE_SetAfFilter
                0x34011216       0x48 tmp/obj/gcc/can_freertos_customization/Can_43_LLCE.o
                0x34011216                Can_43_LLCE_SetAfFilter
 *fill*         0x3401125e        0x2 
 .text.Can_43_LLCE_CreateAfDestination
                0x34011260       0x5c tmp/obj/gcc/can_freertos_customization/Can_43_LLCE.o
                0x34011260                Can_43_LLCE_CreateAfDestination
 .text.Can_43_LLCE_RemoveFilter
                0x340112bc       0x4c tmp/obj/gcc/can_freertos_customization/Can_43_LLCE.o
                0x340112bc                Can_43_LLCE_RemoveFilter
 .text.Can_43_LLCE_SetFilterState
                0x34011308       0x52 tmp/obj/gcc/can_freertos_customization/Can_43_LLCE.o
                0x34011308                Can_43_LLCE_SetFilterState
 *fill*         0x3401135a        0x2 
 .text.Can_43_LLCE_GetCurrentConfig
                0x3401135c       0x18 tmp/obj/gcc/can_freertos_customization/Can_43_LLCE_IPW.o
 .text.Can_43_LLCE_IPW_Init
                0x34011374       0x4c tmp/obj/gcc/can_freertos_customization/Can_43_LLCE_IPW.o
                0x34011374                Can_43_LLCE_IPW_Init
 .text.Can_43_LLCE_IPW_Write
                0x340113c0       0xdc tmp/obj/gcc/can_freertos_customization/Can_43_LLCE_IPW.o
                0x340113c0                Can_43_LLCE_IPW_Write
 .text.Can_43_LLCE_IPW_GetControllerMode
                0x3401149c       0x32 tmp/obj/gcc/can_freertos_customization/Can_43_LLCE_IPW.o
                0x3401149c                Can_43_LLCE_IPW_GetControllerMode
 *fill*         0x340114ce        0x2 
 .text.Can_43_LLCE_IPW_SetControllerMode
                0x340114d0       0x64 tmp/obj/gcc/can_freertos_customization/Can_43_LLCE_IPW.o
                0x340114d0                Can_43_LLCE_IPW_SetControllerMode
 .text.Can_43_LLCE_IPW_DisableControllerInterrupts
                0x34011534       0x2c tmp/obj/gcc/can_freertos_customization/Can_43_LLCE_IPW.o
                0x34011534                Can_43_LLCE_IPW_DisableControllerInterrupts
 .text.Can_43_LLCE_IPW_EnableControllerInterrupts
                0x34011560       0x2c tmp/obj/gcc/can_freertos_customization/Can_43_LLCE_IPW.o
                0x34011560                Can_43_LLCE_IPW_EnableControllerInterrupts
 .text.Can_43_LLCE_IPW_GetControllerStatus
                0x3401158c       0x32 tmp/obj/gcc/can_freertos_customization/Can_43_LLCE_IPW.o
                0x3401158c                Can_43_LLCE_IPW_GetControllerStatus
 .text.Can_43_LLCE_IPW_ChangeBaudrate
                0x340115be       0x54 tmp/obj/gcc/can_freertos_customization/Can_43_LLCE_IPW.o
                0x340115be                Can_43_LLCE_IPW_ChangeBaudrate
 .text.Can_43_LLCE_IPW_MainFunctionMode
                0x34011612       0x2c tmp/obj/gcc/can_freertos_customization/Can_43_LLCE_IPW.o
                0x34011612                Can_43_LLCE_IPW_MainFunctionMode
 .text.Can_43_LLCE_IPW_GetControllerErrorState
                0x3401163e       0x32 tmp/obj/gcc/can_freertos_customization/Can_43_LLCE_IPW.o
                0x3401163e                Can_43_LLCE_IPW_GetControllerErrorState
 .text.Can_43_LLCE_IPW_GetControllerRxErrorCounter
                0x34011670       0x32 tmp/obj/gcc/can_freertos_customization/Can_43_LLCE_IPW.o
                0x34011670                Can_43_LLCE_IPW_GetControllerRxErrorCounter
 .text.Can_43_LLCE_IPW_GetControllerTxErrorCounter
                0x340116a2       0x32 tmp/obj/gcc/can_freertos_customization/Can_43_LLCE_IPW.o
                0x340116a2                Can_43_LLCE_IPW_GetControllerTxErrorCounter
 .text.Can_43_LLCE_IPW_DeInitController
                0x340116d4       0x2e tmp/obj/gcc/can_freertos_customization/Can_43_LLCE_IPW.o
                0x340116d4                Can_43_LLCE_IPW_DeInitController
 .text.Reg_Read32
                0x34011702       0x18 tmp/obj/gcc/can_freertos_customization/Can_43_LLCE_Irq.o
 *fill*         0x3401171a        0x2 
 .text.Can_FifoTxAckNotEmptyIsr_0_7
                0x3401171c       0x9c tmp/obj/gcc/can_freertos_customization/Can_43_LLCE_Irq.o
                0x3401171c                Can_FifoTxAckNotEmptyIsr_0_7
 .text.Can_FifoTxAckNotEmptyIsr_8_15
                0x340117b8       0x9c tmp/obj/gcc/can_freertos_customization/Can_43_LLCE_Irq.o
                0x340117b8                Can_FifoTxAckNotEmptyIsr_8_15
 .text.Can_FifoRxOutNotEmptyIsr_0_7
                0x34011854       0x9c tmp/obj/gcc/can_freertos_customization/Can_43_LLCE_Irq.o
                0x34011854                Can_FifoRxOutNotEmptyIsr_0_7
 .text.Can_FifoRxOutNotEmptyIsr_8_15
                0x340118f0       0x9c tmp/obj/gcc/can_freertos_customization/Can_43_LLCE_Irq.o
                0x340118f0                Can_FifoRxOutNotEmptyIsr_8_15
 .text.Can_FifoRxInNotEmptyIsr_0_7
                0x3401198c       0x28 tmp/obj/gcc/can_freertos_customization/Can_43_LLCE_Irq.o
                0x3401198c                Can_FifoRxInNotEmptyIsr_0_7
 .text.Can_FifoRxInNotEmptyIsr_8_15
                0x340119b4       0x28 tmp/obj/gcc/can_freertos_customization/Can_43_LLCE_Irq.o
                0x340119b4                Can_FifoRxInNotEmptyIsr_8_15
 .text.Can_43_LLCE_GetCurrentConfig
                0x340119dc       0x18 tmp/obj/gcc/can_freertos_customization/Can_Callback.o
 .text.Can_43_LLCE_ReportError
                0x340119f4       0x1c tmp/obj/gcc/can_freertos_customization/Can_Callback.o
                0x340119f4                Can_43_LLCE_ReportError
 .text.Can_43_LLCE_TxConfirmation
                0x34011a10       0x1a tmp/obj/gcc/can_freertos_customization/Can_Callback.o
                0x34011a10                Can_43_LLCE_TxConfirmation
 *fill*         0x34011a2a        0x2 
 .text.Can_43_LLCE_RxIndication
                0x34011a2c      0x108 tmp/obj/gcc/can_freertos_customization/Can_Callback.o
                0x34011a2c                Can_43_LLCE_RxIndication
 .text.Can_43_LLCE_ControllerBusOff
                0x34011b34       0x28 tmp/obj/gcc/can_freertos_customization/Can_Callback.o
                0x34011b34                Can_43_LLCE_ControllerBusOff
 .text.Can_43_LLCE_ControllerModeIndication
                0x34011b5c       0x32 tmp/obj/gcc/can_freertos_customization/Can_Callback.o
                0x34011b5c                Can_43_LLCE_ControllerModeIndication
 *fill*         0x34011b8e        0x2 
 .text.Can_Hth_FreeTxObject
                0x34011b90       0x88 tmp/obj/gcc/can_freertos_customization/Can_Callback.o
                0x34011b90                Can_Hth_FreeTxObject
 .text.Reg_Write8
                0x34011c18       0x1e tmp/obj/gcc/can_freertos_customization/Can_Llce.o
 .text.Reg_Write32
                0x34011c36       0x1c tmp/obj/gcc/can_freertos_customization/Can_Llce.o
 .text.Reg_Read8
                0x34011c52       0x1a tmp/obj/gcc/can_freertos_customization/Can_Llce.o
 .text.Reg_Read32
                0x34011c6c       0x18 tmp/obj/gcc/can_freertos_customization/Can_Llce.o
 .text.Reg_Bit_Clear32
                0x34011c84       0x24 tmp/obj/gcc/can_freertos_customization/Can_Llce.o
 .text.Reg_Bit_Set32
                0x34011ca8       0x22 tmp/obj/gcc/can_freertos_customization/Can_Llce.o
 *fill*         0x34011cca        0x2 
 .text.Llce_Sema42_Lock
                0x34011ccc       0x4c tmp/obj/gcc/can_freertos_customization/Can_Llce.o
 .text.Llce_Sema42_Unlock
                0x34011d18       0x28 tmp/obj/gcc/can_freertos_customization/Can_Llce.o
 .text.Llce_Can_GetMbData
                0x34011d40      0x104 tmp/obj/gcc/can_freertos_customization/Can_Llce.o
 .text.Llce_GetSema42Gate
                0x34011e44       0x30 tmp/obj/gcc/can_freertos_customization/Can_Llce.o
 .text.Can_Llce_GetCurrentConfig
                0x34011e74       0x18 tmp/obj/gcc/can_freertos_customization/Can_Llce.o
 .text.Can_Llce_CheckCommandAvailable
                0x34011e8c       0x44 tmp/obj/gcc/can_freertos_customization/Can_Llce.o
 .text.Can_Llce_UpdateToStartMode
                0x34011ed0       0xa0 tmp/obj/gcc/can_freertos_customization/Can_Llce.o
 .text.Can_Llce_DisableInterrupts
                0x34011f70      0x150 tmp/obj/gcc/can_freertos_customization/Can_Llce.o
 .text.Can_Llce_ResetIntFlags
                0x340120c0       0x9c tmp/obj/gcc/can_freertos_customization/Can_Llce.o
 .text.Can_Llce_EnableInterrupts
                0x3401215c      0x138 tmp/obj/gcc/can_freertos_customization/Can_Llce.o
 .text.Can_Llce_EnableNotifInterrupt
                0x34012294       0x38 tmp/obj/gcc/can_freertos_customization/Can_Llce.o
 .text.Can_Llce_DisableNotifInterrupt
                0x340122cc       0x38 tmp/obj/gcc/can_freertos_customization/Can_Llce.o
 .text.Can_Llce_SetControllerToStopMode
                0x34012304       0x90 tmp/obj/gcc/can_freertos_customization/Can_Llce.o
 .text.Can_Llce_SendStopCmd
                0x34012394       0xe8 tmp/obj/gcc/can_freertos_customization/Can_Llce.o
 .text.Can_Llce_SetControllerToStartMode
                0x3401247c       0xdc tmp/obj/gcc/can_freertos_customization/Can_Llce.o
 .text.Can_Llce_SetControllerToSleepMode
                0x34012558       0x78 tmp/obj/gcc/can_freertos_customization/Can_Llce.o
 .text.Can_Llce_UpdateMB
                0x340125d0      0x188 tmp/obj/gcc/can_freertos_customization/Can_Llce.o
 .text.Can_Llce_ComputeMbConfig
                0x34012758       0xfc tmp/obj/gcc/can_freertos_customization/Can_Llce.o
 .text.Can_Llce_ExecuteIfCommand
                0x34012854       0xd8 tmp/obj/gcc/can_freertos_customization/Can_Llce.o
 .text.Can_Llce_CreateAfDestination
                0x3401292c       0xd0 tmp/obj/gcc/can_freertos_customization/Can_Llce.o
                0x3401292c                Can_Llce_CreateAfDestination
 .text.Can_Llce_CreateConfiguredAfDestinations
                0x340129fc       0xec tmp/obj/gcc/can_freertos_customization/Can_Llce.o
 .text.Can_Llce_SetConfiguredAfFilters
                0x34012ae8      0x1e4 tmp/obj/gcc/can_freertos_customization/Can_Llce.o
 .text.Can_Llce_SendSetAfFilterCommand
                0x34012ccc       0x98 tmp/obj/gcc/can_freertos_customization/Can_Llce.o
 .text.Can_Llce_CheckCustomCallback
                0x34012d64       0x68 tmp/obj/gcc/can_freertos_customization/Can_Llce.o
 .text.Can_Llce_RemoveFilter
                0x34012dcc       0xec tmp/obj/gcc/can_freertos_customization/Can_Llce.o
                0x34012dcc                Can_Llce_RemoveFilter
 .text.Can_Llce_SetFilter
                0x34012eb8      0x124 tmp/obj/gcc/can_freertos_customization/Can_Llce.o
                0x34012eb8                Can_Llce_SetFilter
 .text.Can_Llce_SetFilterAtAddress
                0x34012fdc      0x130 tmp/obj/gcc/can_freertos_customization/Can_Llce.o
                0x34012fdc                Can_Llce_SetFilterAtAddress
 .text.Can_Llce_SetAfFilter
                0x3401310c      0x134 tmp/obj/gcc/can_freertos_customization/Can_Llce.o
                0x3401310c                Can_Llce_SetAfFilter
 .text.Can_Llce_SetFilterState
                0x34013240       0xf0 tmp/obj/gcc/can_freertos_customization/Can_Llce.o
                0x34013240                Can_Llce_SetFilterState
 .text.Can_Llce_InitVariables
                0x34013330       0x88 tmp/obj/gcc/can_freertos_customization/Can_Llce.o
 .text.Can_Llce_ProcessFilterIdMaskType
                0x340133b8       0x88 tmp/obj/gcc/can_freertos_customization/Can_Llce.o
 .text.Can_Llce_Init
                0x34013440       0x44 tmp/obj/gcc/can_freertos_customization/Can_Llce.o
                0x34013440                Can_Llce_Init
 .text.Can_Llce_InitPlatform
                0x34013484       0xe8 tmp/obj/gcc/can_freertos_customization/Can_Llce.o
 .text.Can_Llce_InitController
                0x3401356c       0xfc tmp/obj/gcc/can_freertos_customization/Can_Llce.o
 .text.Can_Llce_SetConfiguredReceiveFilters
                0x34013668      0x148 tmp/obj/gcc/can_freertos_customization/Can_Llce.o
 .text.Can_Llce_SendSetFilterCommand
                0x340137b0       0x7c tmp/obj/gcc/can_freertos_customization/Can_Llce.o
 .text.Can_Llce_AfInit
                0x3401382c       0x16 tmp/obj/gcc/can_freertos_customization/Can_Llce.o
 *fill*         0x34013842        0x2 
 .text.Can_Llce_DeInitController
                0x34013844       0x84 tmp/obj/gcc/can_freertos_customization/Can_Llce.o
                0x34013844                Can_Llce_DeInitController
 .text.Can_Llce_DeInitPlatform
                0x340138c8       0x74 tmp/obj/gcc/can_freertos_customization/Can_Llce.o
                0x340138c8                Can_Llce_DeInitPlatform
 .text.Can_Llce_ResetFifoContent
                0x3401393c       0xbc tmp/obj/gcc/can_freertos_customization/Can_Llce.o
 .text.Can_Llce_ControllerBusOff
                0x340139f8       0xd0 tmp/obj/gcc/can_freertos_customization/Can_Llce.o
 .text.Can_Llce_ChangeBaudrate
                0x34013ac8       0x9c tmp/obj/gcc/can_freertos_customization/Can_Llce.o
                0x34013ac8                Can_Llce_ChangeBaudrate
 .text.Can_Llce_GetControllerMode
                0x34013b64       0x8c tmp/obj/gcc/can_freertos_customization/Can_Llce.o
                0x34013b64                Can_Llce_GetControllerMode
 .text.Can_Llce_GetLlceControllerMode
                0x34013bf0       0x8c tmp/obj/gcc/can_freertos_customization/Can_Llce.o
 .text.Can_Llce_SetControllerMode
                0x34013c7c       0x66 tmp/obj/gcc/can_freertos_customization/Can_Llce.o
                0x34013c7c                Can_Llce_SetControllerMode
 *fill*         0x34013ce2        0x2 
 .text.Can_Llce_Write
                0x34013ce4       0xa8 tmp/obj/gcc/can_freertos_customization/Can_Llce.o
                0x34013ce4                Can_Llce_Write
 .text.Can_Llce_ProcessTx
                0x34013d8c      0x150 tmp/obj/gcc/can_freertos_customization/Can_Llce.o
                0x34013d8c                Can_Llce_ProcessTx
 .text.Can_Llce_ProcessNotificationISR
                0x34013edc      0x1e0 tmp/obj/gcc/can_freertos_customization/Can_Llce.o
                0x34013edc                Can_Llce_ProcessNotificationISR
 .text.Can_Llce_ProcessRxMb
                0x340140bc       0xb8 tmp/obj/gcc/can_freertos_customization/Can_Llce.o
 .text.Can_Llce_ProcessRx
                0x34014174      0x198 tmp/obj/gcc/can_freertos_customization/Can_Llce.o
                0x34014174                Can_Llce_ProcessRx
 .text.Can_Llce_MainFunctionMode
                0x3401430c       0xf4 tmp/obj/gcc/can_freertos_customization/Can_Llce.o
                0x3401430c                Can_Llce_MainFunctionMode
 .text.Can_Llce_DisableControllerInterrupts
                0x34014400       0x50 tmp/obj/gcc/can_freertos_customization/Can_Llce.o
                0x34014400                Can_Llce_DisableControllerInterrupts
 .text.Can_Llce_EnableControllerInterrupts
                0x34014450       0x6c tmp/obj/gcc/can_freertos_customization/Can_Llce.o
                0x34014450                Can_Llce_EnableControllerInterrupts
 .text.Can_Llce_GetControllerErrorState
                0x340144bc      0x10c tmp/obj/gcc/can_freertos_customization/Can_Llce.o
                0x340144bc                Can_Llce_GetControllerErrorState
 .text.Can_Llce_GetControllerRxErrorCounter
                0x340145c8       0x8c tmp/obj/gcc/can_freertos_customization/Can_Llce.o
                0x340145c8                Can_Llce_GetControllerRxErrorCounter
 .text.Can_Llce_GetControllerTxErrorCounter
                0x34014654       0x90 tmp/obj/gcc/can_freertos_customization/Can_Llce.o
                0x34014654                Can_Llce_GetControllerTxErrorCounter
 .text.Can_Llce_GetControllerStatus
                0x340146e4       0x90 tmp/obj/gcc/can_freertos_customization/Can_Llce.o
                0x340146e4                Can_Llce_GetControllerStatus
 .text.Can_Llce_GetFwVersion
                0x34014774       0xfc tmp/obj/gcc/can_freertos_customization/Can_Llce.o
                0x34014774                Can_Llce_GetFwVersion
 .text.Can_Llce_ExecuteCustomCommand
                0x34014870       0x88 tmp/obj/gcc/can_freertos_customization/Can_Llce.o
                0x34014870                Can_Llce_ExecuteCustomCommand
 .text.Reg_Write8
                0x340148f8       0x1e tmp/obj/gcc/can_freertos_customization/Llce_InterfaceCanConfig.o
 .text.Reg_Write32
                0x34014916       0x1c tmp/obj/gcc/can_freertos_customization/Llce_InterfaceCanConfig.o
 .text.Reg_Read8
                0x34014932       0x1a tmp/obj/gcc/can_freertos_customization/Llce_InterfaceCanConfig.o
 .text.Reg_Read32
                0x3401494c       0x18 tmp/obj/gcc/can_freertos_customization/Llce_InterfaceCanConfig.o
 .text.Reg_Bit_Clear32
                0x34014964       0x24 tmp/obj/gcc/can_freertos_customization/Llce_InterfaceCanConfig.o
 .text.Reg_Bit_Set32
                0x34014988       0x22 tmp/obj/gcc/can_freertos_customization/Llce_InterfaceCanConfig.o
 *fill*         0x340149aa        0x2 
 .text.Llce_Sema42_Lock
                0x340149ac       0x4c tmp/obj/gcc/can_freertos_customization/Llce_InterfaceCanConfig.o
 .text.Llce_Sema42_Unlock
                0x340149f8       0x28 tmp/obj/gcc/can_freertos_customization/Llce_InterfaceCanConfig.o
 .text.Llce_GetSema42Gate
                0x34014a20       0x30 tmp/obj/gcc/can_freertos_customization/Llce_InterfaceCanConfig.o
 .text.DisableFifoInterrupts
                0x34014a50       0x94 tmp/obj/gcc/can_freertos_customization/Llce_InterfaceCanConfig.o
                0x34014a50                DisableFifoInterrupts
 .text.EnableFifoInterrupts
                0x34014ae4       0xe0 tmp/obj/gcc/can_freertos_customization/Llce_InterfaceCanConfig.o
                0x34014ae4                EnableFifoInterrupts
 .text.xEventGroupCreate
                0x34014bc4       0x2e tmp/obj/gcc/can_freertos_customization/event_groups.o
                0x34014bc4                xEventGroupCreate
 *fill*         0x34014bf2        0x2 
 .text.xEventGroupSync
                0x34014bf4      0x168 tmp/obj/gcc/can_freertos_customization/event_groups.o
                0x34014bf4                xEventGroupSync
 .text.xEventGroupWaitBits
                0x34014d5c      0x1ac tmp/obj/gcc/can_freertos_customization/event_groups.o
                0x34014d5c                xEventGroupWaitBits
 .text.xEventGroupClearBits
                0x34014f08       0x78 tmp/obj/gcc/can_freertos_customization/event_groups.o
                0x34014f08                xEventGroupClearBits
 .text.xEventGroupClearBitsFromISR
                0x34014f80       0x28 tmp/obj/gcc/can_freertos_customization/event_groups.o
                0x34014f80                xEventGroupClearBitsFromISR
 .text.xEventGroupGetBitsFromISR
                0x34014fa8       0x4c tmp/obj/gcc/can_freertos_customization/event_groups.o
                0x34014fa8                xEventGroupGetBitsFromISR
 .text.xEventGroupSetBits
                0x34014ff4      0x11e tmp/obj/gcc/can_freertos_customization/event_groups.o
                0x34014ff4                xEventGroupSetBits
 .text.vEventGroupDelete
                0x34015112       0x86 tmp/obj/gcc/can_freertos_customization/event_groups.o
                0x34015112                vEventGroupDelete
 .text.vEventGroupSetBitsCallback
                0x34015198       0x1a tmp/obj/gcc/can_freertos_customization/event_groups.o
                0x34015198                vEventGroupSetBitsCallback
 .text.vEventGroupClearBitsCallback
                0x340151b2       0x1a tmp/obj/gcc/can_freertos_customization/event_groups.o
                0x340151b2                vEventGroupClearBitsCallback
 .text.prvTestWaitCondition
                0x340151cc       0x44 tmp/obj/gcc/can_freertos_customization/event_groups.o
 .text.xEventGroupSetBitsFromISR
                0x34015210       0x28 tmp/obj/gcc/can_freertos_customization/event_groups.o
                0x34015210                xEventGroupSetBitsFromISR
 .text.uxEventGroupGetNumber
                0x34015238       0x2c tmp/obj/gcc/can_freertos_customization/event_groups.o
                0x34015238                uxEventGroupGetNumber
 .text.vEventGroupSetNumber
                0x34015264       0x1c tmp/obj/gcc/can_freertos_customization/event_groups.o
                0x34015264                vEventGroupSetNumber
 .text.vListInitialise
                0x34015280       0x40 tmp/obj/gcc/can_freertos_customization/list.o
                0x34015280                vListInitialise
 .text.vListInitialiseItem
                0x340152c0       0x1a tmp/obj/gcc/can_freertos_customization/list.o
                0x340152c0                vListInitialiseItem
 .text.vListInsertEnd
                0x340152da       0x48 tmp/obj/gcc/can_freertos_customization/list.o
                0x340152da                vListInsertEnd
 .text.vListInsert
                0x34015322       0x72 tmp/obj/gcc/can_freertos_customization/list.o
                0x34015322                vListInsert
 .text.uxListRemove
                0x34015394       0x54 tmp/obj/gcc/can_freertos_customization/list.o
                0x34015394                uxListRemove
 .text.xQueueGenericReset
                0x340153e8      0x128 tmp/obj/gcc/can_freertos_customization/queue.o
                0x340153e8                xQueueGenericReset
 .text.xQueueGenericCreate
                0x34015510       0xa0 tmp/obj/gcc/can_freertos_customization/queue.o
                0x34015510                xQueueGenericCreate
 .text.prvInitialiseNewQueue
                0x340155b0       0x46 tmp/obj/gcc/can_freertos_customization/queue.o
 .text.prvInitialiseMutex
                0x340155f6       0x34 tmp/obj/gcc/can_freertos_customization/queue.o
 .text.xQueueCreateMutex
                0x3401562a       0x30 tmp/obj/gcc/can_freertos_customization/queue.o
                0x3401562a                xQueueCreateMutex
 .text.xQueueGetMutexHolder
                0x3401565a       0x52 tmp/obj/gcc/can_freertos_customization/queue.o
                0x3401565a                xQueueGetMutexHolder
 .text.xQueueGetMutexHolderFromISR
                0x340156ac       0x4a tmp/obj/gcc/can_freertos_customization/queue.o
                0x340156ac                xQueueGetMutexHolderFromISR
 .text.xQueueGiveMutexRecursive
                0x340156f6       0x6c tmp/obj/gcc/can_freertos_customization/queue.o
                0x340156f6                xQueueGiveMutexRecursive
 .text.xQueueTakeMutexRecursive
                0x34015762       0x70 tmp/obj/gcc/can_freertos_customization/queue.o
                0x34015762                xQueueTakeMutexRecursive
 .text.xQueueCreateCountingSemaphore
                0x340157d2       0x60 tmp/obj/gcc/can_freertos_customization/queue.o
                0x340157d2                xQueueCreateCountingSemaphore
 *fill*         0x34015832        0x2 
 .text.xQueueGenericSend
                0x34015834      0x20c tmp/obj/gcc/can_freertos_customization/queue.o
                0x34015834                xQueueGenericSend
 .text.xQueueGenericSendFromISR
                0x34015a40      0x168 tmp/obj/gcc/can_freertos_customization/queue.o
                0x34015a40                xQueueGenericSendFromISR
 .text.xQueueGiveFromISR
                0x34015ba8      0x14c tmp/obj/gcc/can_freertos_customization/queue.o
                0x34015ba8                xQueueGiveFromISR
 .text.xQueueReceive
                0x34015cf4      0x1cc tmp/obj/gcc/can_freertos_customization/queue.o
                0x34015cf4                xQueueReceive
 .text.xQueueSemaphoreTake
                0x34015ec0      0x228 tmp/obj/gcc/can_freertos_customization/queue.o
                0x34015ec0                xQueueSemaphoreTake
 .text.xQueuePeek
                0x340160e8      0x1d0 tmp/obj/gcc/can_freertos_customization/queue.o
                0x340160e8                xQueuePeek
 .text.xQueueReceiveFromISR
                0x340162b8      0x12e tmp/obj/gcc/can_freertos_customization/queue.o
                0x340162b8                xQueueReceiveFromISR
 .text.xQueuePeekFromISR
                0x340163e6       0xe2 tmp/obj/gcc/can_freertos_customization/queue.o
                0x340163e6                xQueuePeekFromISR
 .text.uxQueueMessagesWaiting
                0x340164c8       0x40 tmp/obj/gcc/can_freertos_customization/queue.o
                0x340164c8                uxQueueMessagesWaiting
 .text.uxQueueSpacesAvailable
                0x34016508       0x4a tmp/obj/gcc/can_freertos_customization/queue.o
                0x34016508                uxQueueSpacesAvailable
 .text.uxQueueMessagesWaitingFromISR
                0x34016552       0x40 tmp/obj/gcc/can_freertos_customization/queue.o
                0x34016552                uxQueueMessagesWaitingFromISR
 .text.vQueueDelete
                0x34016592       0x40 tmp/obj/gcc/can_freertos_customization/queue.o
                0x34016592                vQueueDelete
 .text.uxQueueGetQueueNumber
                0x340165d2       0x18 tmp/obj/gcc/can_freertos_customization/queue.o
                0x340165d2                uxQueueGetQueueNumber
 .text.vQueueSetQueueNumber
                0x340165ea       0x1c tmp/obj/gcc/can_freertos_customization/queue.o
                0x340165ea                vQueueSetQueueNumber
 .text.ucQueueGetQueueType
                0x34016606       0x1a tmp/obj/gcc/can_freertos_customization/queue.o
                0x34016606                ucQueueGetQueueType
 .text.prvGetDisinheritPriorityAfterTimeout
                0x34016620       0x30 tmp/obj/gcc/can_freertos_customization/queue.o
 .text.prvCopyDataToQueue
                0x34016650       0xd4 tmp/obj/gcc/can_freertos_customization/queue.o
 .text.prvCopyDataFromQueue
                0x34016724       0x4c tmp/obj/gcc/can_freertos_customization/queue.o
 .text.prvUnlockQueue
                0x34016770       0xa4 tmp/obj/gcc/can_freertos_customization/queue.o
 .text.prvIsQueueEmpty
                0x34016814       0x2c tmp/obj/gcc/can_freertos_customization/queue.o
 .text.xQueueIsQueueEmptyFromISR
                0x34016840       0x4c tmp/obj/gcc/can_freertos_customization/queue.o
                0x34016840                xQueueIsQueueEmptyFromISR
 .text.prvIsQueueFull
                0x3401688c       0x30 tmp/obj/gcc/can_freertos_customization/queue.o
 .text.xQueueIsQueueFullFromISR
                0x340168bc       0x50 tmp/obj/gcc/can_freertos_customization/queue.o
                0x340168bc                xQueueIsQueueFullFromISR
 .text.vQueueAddToRegistry
                0x3401690c       0xa0 tmp/obj/gcc/can_freertos_customization/queue.o
                0x3401690c                vQueueAddToRegistry
 .text.pcQueueGetName
                0x340169ac       0x6c tmp/obj/gcc/can_freertos_customization/queue.o
                0x340169ac                pcQueueGetName
 .text.vQueueUnregisterQueue
                0x34016a18       0x74 tmp/obj/gcc/can_freertos_customization/queue.o
                0x34016a18                vQueueUnregisterQueue
 .text.vQueueWaitForMessageRestricted
                0x34016a8c       0x68 tmp/obj/gcc/can_freertos_customization/queue.o
                0x34016a8c                vQueueWaitForMessageRestricted
 .text.xStreamBufferGenericCreate
                0x34016af4       0xd0 tmp/obj/gcc/can_freertos_customization/stream_buffer.o
                0x34016af4                xStreamBufferGenericCreate
 .text.vStreamBufferDelete
                0x34016bc4       0x52 tmp/obj/gcc/can_freertos_customization/stream_buffer.o
                0x34016bc4                vStreamBufferDelete
 .text.xStreamBufferReset
                0x34016c16       0x7c tmp/obj/gcc/can_freertos_customization/stream_buffer.o
                0x34016c16                xStreamBufferReset
 .text.xStreamBufferSetTriggerLevel
                0x34016c92       0x60 tmp/obj/gcc/can_freertos_customization/stream_buffer.o
                0x34016c92                xStreamBufferSetTriggerLevel
 .text.xStreamBufferSpacesAvailable
                0x34016cf2       0x7a tmp/obj/gcc/can_freertos_customization/stream_buffer.o
                0x34016cf2                xStreamBufferSpacesAvailable
 .text.xStreamBufferBytesAvailable
                0x34016d6c       0x3e tmp/obj/gcc/can_freertos_customization/stream_buffer.o
                0x34016d6c                xStreamBufferBytesAvailable
 .text.xStreamBufferSend
                0x34016daa      0x1aa tmp/obj/gcc/can_freertos_customization/stream_buffer.o
                0x34016daa                xStreamBufferSend
 .text.xStreamBufferSendFromISR
                0x34016f54       0xf2 tmp/obj/gcc/can_freertos_customization/stream_buffer.o
                0x34016f54                xStreamBufferSendFromISR
 .text.prvWriteMessageToBuffer
                0x34017046       0x6c tmp/obj/gcc/can_freertos_customization/stream_buffer.o
 .text.xStreamBufferReceive
                0x340170b2      0x13c tmp/obj/gcc/can_freertos_customization/stream_buffer.o
                0x340170b2                xStreamBufferReceive
 .text.xStreamBufferNextMessageLengthBytes
                0x340171ee       0x90 tmp/obj/gcc/can_freertos_customization/stream_buffer.o
                0x340171ee                xStreamBufferNextMessageLengthBytes
 .text.xStreamBufferReceiveFromISR
                0x3401727e       0xea tmp/obj/gcc/can_freertos_customization/stream_buffer.o
                0x3401727e                xStreamBufferReceiveFromISR
 .text.prvReadMessageFromBuffer
                0x34017368       0x7a tmp/obj/gcc/can_freertos_customization/stream_buffer.o
 .text.xStreamBufferIsEmpty
                0x340173e2       0x54 tmp/obj/gcc/can_freertos_customization/stream_buffer.o
                0x340173e2                xStreamBufferIsEmpty
 .text.xStreamBufferIsFull
                0x34017436       0x64 tmp/obj/gcc/can_freertos_customization/stream_buffer.o
                0x34017436                xStreamBufferIsFull
 .text.xStreamBufferSendCompletedFromISR
                0x3401749a       0x92 tmp/obj/gcc/can_freertos_customization/stream_buffer.o
                0x3401749a                xStreamBufferSendCompletedFromISR
 .text.xStreamBufferReceiveCompletedFromISR
                0x3401752c       0x92 tmp/obj/gcc/can_freertos_customization/stream_buffer.o
                0x3401752c                xStreamBufferReceiveCompletedFromISR
 .text.prvWriteBytesToBuffer
                0x340175be       0xe6 tmp/obj/gcc/can_freertos_customization/stream_buffer.o
 .text.prvReadBytesFromBuffer
                0x340176a4       0xe0 tmp/obj/gcc/can_freertos_customization/stream_buffer.o
 .text.prvBytesInBuffer
                0x34017784       0x40 tmp/obj/gcc/can_freertos_customization/stream_buffer.o
 .text.prvInitialiseNewStreamBuffer
                0x340177c4       0x6a tmp/obj/gcc/can_freertos_customization/stream_buffer.o
 .text.uxStreamBufferGetStreamBufferNumber
                0x3401782e       0x18 tmp/obj/gcc/can_freertos_customization/stream_buffer.o
                0x3401782e                uxStreamBufferGetStreamBufferNumber
 .text.vStreamBufferSetStreamBufferNumber
                0x34017846       0x1c tmp/obj/gcc/can_freertos_customization/stream_buffer.o
                0x34017846                vStreamBufferSetStreamBufferNumber
 .text.ucStreamBufferGetStreamBufferType
                0x34017862       0x1e tmp/obj/gcc/can_freertos_customization/stream_buffer.o
                0x34017862                ucStreamBufferGetStreamBufferType
 .text.xTaskCreate
                0x34017880       0x82 tmp/obj/gcc/can_freertos_customization/tasks.o
                0x34017880                xTaskCreate
 .text.prvInitialiseNewTask
                0x34017902      0x15e tmp/obj/gcc/can_freertos_customization/tasks.o
 .text.prvAddNewTaskToReadyList
                0x34017a60      0x130 tmp/obj/gcc/can_freertos_customization/tasks.o
 .text.vTaskDelete
                0x34017b90       0xf4 tmp/obj/gcc/can_freertos_customization/tasks.o
                0x34017b90                vTaskDelete
 .text.xTaskDelayUntil
                0x34017c84      0x108 tmp/obj/gcc/can_freertos_customization/tasks.o
                0x34017c84                xTaskDelayUntil
 .text.vTaskDelay
                0x34017d8c       0x6c tmp/obj/gcc/can_freertos_customization/tasks.o
                0x34017d8c                vTaskDelay
 .text.eTaskGetState
                0x34017df8       0xf8 tmp/obj/gcc/can_freertos_customization/tasks.o
                0x34017df8                eTaskGetState
 .text.uxTaskPriorityGet
                0x34017ef0       0x34 tmp/obj/gcc/can_freertos_customization/tasks.o
                0x34017ef0                uxTaskPriorityGet
 .text.uxTaskPriorityGetFromISR
                0x34017f24       0x5c tmp/obj/gcc/can_freertos_customization/tasks.o
                0x34017f24                uxTaskPriorityGetFromISR
 .text.vTaskPrioritySet
                0x34017f80      0x190 tmp/obj/gcc/can_freertos_customization/tasks.o
                0x34017f80                vTaskPrioritySet
 .text.vTaskSuspend
                0x34018110      0x108 tmp/obj/gcc/can_freertos_customization/tasks.o
                0x34018110                vTaskSuspend
 .text.prvTaskIsTaskSuspended
                0x34018218       0x68 tmp/obj/gcc/can_freertos_customization/tasks.o
 .text.vTaskResume
                0x34018280      0x110 tmp/obj/gcc/can_freertos_customization/tasks.o
                0x34018280                vTaskResume
 .text.xTaskResumeFromISR
                0x34018390      0x148 tmp/obj/gcc/can_freertos_customization/tasks.o
                0x34018390                xTaskResumeFromISR
 .text.vTaskStartScheduler
                0x340184d8       0xac tmp/obj/gcc/can_freertos_customization/tasks.o
                0x340184d8                vTaskStartScheduler
 .text.vTaskEndScheduler
                0x34018584       0x34 tmp/obj/gcc/can_freertos_customization/tasks.o
                0x34018584                vTaskEndScheduler
 .text.vTaskSuspendAll
                0x340185b8       0x1c tmp/obj/gcc/can_freertos_customization/tasks.o
                0x340185b8                vTaskSuspendAll
 .text.xTaskResumeAll
                0x340185d4      0x1fc tmp/obj/gcc/can_freertos_customization/tasks.o
                0x340185d4                xTaskResumeAll
 .text.xTaskGetTickCount
                0x340187d0       0x20 tmp/obj/gcc/can_freertos_customization/tasks.o
                0x340187d0                xTaskGetTickCount
 .text.xTaskGetTickCountFromISR
                0x340187f0       0x24 tmp/obj/gcc/can_freertos_customization/tasks.o
                0x340187f0                xTaskGetTickCountFromISR
 .text.uxTaskGetNumberOfTasks
                0x34018814       0x18 tmp/obj/gcc/can_freertos_customization/tasks.o
                0x34018814                uxTaskGetNumberOfTasks
 .text.pcTaskGetName
                0x3401882c       0x4c tmp/obj/gcc/can_freertos_customization/tasks.o
                0x3401882c                pcTaskGetName
 .text.prvSearchForNameWithinSingleList
                0x34018878       0xdc tmp/obj/gcc/can_freertos_customization/tasks.o
 .text.xTaskGetHandle
                0x34018954       0xd0 tmp/obj/gcc/can_freertos_customization/tasks.o
                0x34018954                xTaskGetHandle
 .text.uxTaskGetSystemState
                0x34018a24      0x120 tmp/obj/gcc/can_freertos_customization/tasks.o
                0x34018a24                uxTaskGetSystemState
 .text.xTaskCatchUpTicks
                0x34018b44       0x54 tmp/obj/gcc/can_freertos_customization/tasks.o
                0x34018b44                xTaskCatchUpTicks
 .text.xTaskAbortDelay
                0x34018b98      0x124 tmp/obj/gcc/can_freertos_customization/tasks.o
                0x34018b98                xTaskAbortDelay
 .text.xTaskIncrementTick
                0x34018cbc      0x234 tmp/obj/gcc/can_freertos_customization/tasks.o
                0x34018cbc                xTaskIncrementTick
 .text.vTaskSwitchContext
                0x34018ef0       0xf4 tmp/obj/gcc/can_freertos_customization/tasks.o
                0x34018ef0                vTaskSwitchContext
 .text.vTaskPlaceOnEventList
                0x34018fe4       0x4c tmp/obj/gcc/can_freertos_customization/tasks.o
                0x34018fe4                vTaskPlaceOnEventList
 .text.vTaskPlaceOnUnorderedEventList
                0x34019030       0xb4 tmp/obj/gcc/can_freertos_customization/tasks.o
                0x34019030                vTaskPlaceOnUnorderedEventList
 .text.vTaskPlaceOnEventListRestricted
                0x340190e4       0x90 tmp/obj/gcc/can_freertos_customization/tasks.o
                0x340190e4                vTaskPlaceOnEventListRestricted
 .text.xTaskRemoveFromEventList
                0x34019174      0x1b4 tmp/obj/gcc/can_freertos_customization/tasks.o
                0x34019174                xTaskRemoveFromEventList
 .text.vTaskRemoveFromUnorderedEventList
                0x34019328      0x18c tmp/obj/gcc/can_freertos_customization/tasks.o
                0x34019328                vTaskRemoveFromUnorderedEventList
 .text.vTaskSetTimeOutState
                0x340194b4       0x50 tmp/obj/gcc/can_freertos_customization/tasks.o
                0x340194b4                vTaskSetTimeOutState
 .text.vTaskInternalSetTimeOutState
                0x34019504       0x2c tmp/obj/gcc/can_freertos_customization/tasks.o
                0x34019504                vTaskInternalSetTimeOutState
 .text.xTaskCheckForTimeOut
                0x34019530       0xf4 tmp/obj/gcc/can_freertos_customization/tasks.o
                0x34019530                xTaskCheckForTimeOut
 .text.vTaskMissedYield
                0x34019624       0x18 tmp/obj/gcc/can_freertos_customization/tasks.o
                0x34019624                vTaskMissedYield
 .text.uxTaskGetTaskNumber
                0x3401963c       0x2c tmp/obj/gcc/can_freertos_customization/tasks.o
                0x3401963c                uxTaskGetTaskNumber
 .text.vTaskSetTaskNumber
                0x34019668       0x26 tmp/obj/gcc/can_freertos_customization/tasks.o
                0x34019668                vTaskSetTaskNumber
 *fill*         0x3401968e        0x2 
 .text.prvIdleTask
                0x34019690       0x30 tmp/obj/gcc/can_freertos_customization/tasks.o
 .text.prvInitialiseTaskLists
                0x340196c0       0x80 tmp/obj/gcc/can_freertos_customization/tasks.o
 .text.prvCheckTasksWaitingTermination
                0x34019740       0x5c tmp/obj/gcc/can_freertos_customization/tasks.o
 .text.vTaskGetInfo
                0x3401979c       0xcc tmp/obj/gcc/can_freertos_customization/tasks.o
                0x3401979c                vTaskGetInfo
 .text.prvListTasksWithinSingleList
                0x34019868       0xa4 tmp/obj/gcc/can_freertos_customization/tasks.o
 .text.prvTaskCheckFreeStackSpace
                0x3401990c       0x38 tmp/obj/gcc/can_freertos_customization/tasks.o
 .text.uxTaskGetStackHighWaterMark
                0x34019944       0x38 tmp/obj/gcc/can_freertos_customization/tasks.o
                0x34019944                uxTaskGetStackHighWaterMark
 .text.prvDeleteTCB
                0x3401997c       0x20 tmp/obj/gcc/can_freertos_customization/tasks.o
 .text.prvResetNextTaskUnblockTime
                0x3401999c       0x38 tmp/obj/gcc/can_freertos_customization/tasks.o
 .text.xTaskGetCurrentTaskHandle
                0x340199d4       0x20 tmp/obj/gcc/can_freertos_customization/tasks.o
                0x340199d4                xTaskGetCurrentTaskHandle
 .text.xTaskGetSchedulerState
                0x340199f4       0x3c tmp/obj/gcc/can_freertos_customization/tasks.o
                0x340199f4                xTaskGetSchedulerState
 .text.xTaskPriorityInherit
                0x34019a30      0x120 tmp/obj/gcc/can_freertos_customization/tasks.o
                0x34019a30                xTaskPriorityInherit
 .text.xTaskPriorityDisinherit
                0x34019b50      0x134 tmp/obj/gcc/can_freertos_customization/tasks.o
                0x34019b50                xTaskPriorityDisinherit
 .text.vTaskPriorityDisinheritAfterTimeout
                0x34019c84      0x15c tmp/obj/gcc/can_freertos_customization/tasks.o
                0x34019c84                vTaskPriorityDisinheritAfterTimeout
 .text.prvWriteNameToBuffer
                0x34019de0       0x4a tmp/obj/gcc/can_freertos_customization/tasks.o
 *fill*         0x34019e2a        0x2 
 .text.vTaskList
                0x34019e2c      0x12c tmp/obj/gcc/can_freertos_customization/tasks.o
                0x34019e2c                vTaskList
 .text.vTaskGetRunTimeStats
                0x34019f58      0x108 tmp/obj/gcc/can_freertos_customization/tasks.o
                0x34019f58                vTaskGetRunTimeStats
 .text.uxTaskResetEventItemValue
                0x3401a060       0x30 tmp/obj/gcc/can_freertos_customization/tasks.o
                0x3401a060                uxTaskResetEventItemValue
 .text.pvTaskIncrementMutexHeldCount
                0x3401a090       0x28 tmp/obj/gcc/can_freertos_customization/tasks.o
                0x3401a090                pvTaskIncrementMutexHeldCount
 .text.ulTaskGenericNotifyTake
                0x3401a0b8       0xdc tmp/obj/gcc/can_freertos_customization/tasks.o
                0x3401a0b8                ulTaskGenericNotifyTake
 .text.xTaskGenericNotifyWait
                0x3401a194      0x10c tmp/obj/gcc/can_freertos_customization/tasks.o
                0x3401a194                xTaskGenericNotifyWait
 .text.xTaskGenericNotify
                0x3401a2a0      0x264 tmp/obj/gcc/can_freertos_customization/tasks.o
                0x3401a2a0                xTaskGenericNotify
 .text.xTaskGenericNotifyFromISR
                0x3401a504      0x2dc tmp/obj/gcc/can_freertos_customization/tasks.o
                0x3401a504                xTaskGenericNotifyFromISR
 .text.vTaskGenericNotifyGiveFromISR
                0x3401a7e0      0x220 tmp/obj/gcc/can_freertos_customization/tasks.o
                0x3401a7e0                vTaskGenericNotifyGiveFromISR
 .text.xTaskGenericNotifyStateClear
                0x3401aa00       0x78 tmp/obj/gcc/can_freertos_customization/tasks.o
                0x3401aa00                xTaskGenericNotifyStateClear
 .text.ulTaskGenericNotifyValueClear
                0x3401aa78       0x60 tmp/obj/gcc/can_freertos_customization/tasks.o
                0x3401aa78                ulTaskGenericNotifyValueClear
 .text.prvAddCurrentTaskToDelayedList
                0x3401aad8       0xe8 tmp/obj/gcc/can_freertos_customization/tasks.o
 .text.xTimerCreateTimerTask
                0x3401abc0       0x68 tmp/obj/gcc/can_freertos_customization/timers.o
                0x3401abc0                xTimerCreateTimerTask
 .text.xTimerCreate
                0x3401ac28       0x42 tmp/obj/gcc/can_freertos_customization/timers.o
                0x3401ac28                xTimerCreate
 .text.prvInitialiseNewTimer
                0x3401ac6a       0x74 tmp/obj/gcc/can_freertos_customization/timers.o
 *fill*         0x3401acde        0x2 
 .text.xTimerGenericCommand
                0x3401ace0       0xa0 tmp/obj/gcc/can_freertos_customization/timers.o
                0x3401ace0                xTimerGenericCommand
 .text.xTimerGetTimerDaemonTaskHandle
                0x3401ad80       0x3c tmp/obj/gcc/can_freertos_customization/timers.o
                0x3401ad80                xTimerGetTimerDaemonTaskHandle
 .text.xTimerGetPeriod
                0x3401adbc       0x3c tmp/obj/gcc/can_freertos_customization/timers.o
                0x3401adbc                xTimerGetPeriod
 .text.vTimerSetReloadMode
                0x3401adf8       0x6a tmp/obj/gcc/can_freertos_customization/timers.o
                0x3401adf8                vTimerSetReloadMode
 .text.uxTimerGetReloadMode
                0x3401ae62       0x56 tmp/obj/gcc/can_freertos_customization/timers.o
                0x3401ae62                uxTimerGetReloadMode
 .text.xTimerGetExpiryTime
                0x3401aeb8       0x40 tmp/obj/gcc/can_freertos_customization/timers.o
                0x3401aeb8                xTimerGetExpiryTime
 .text.pcTimerGetName
                0x3401aef8       0x3c tmp/obj/gcc/can_freertos_customization/timers.o
                0x3401aef8                pcTimerGetName
 .text.prvReloadTimer
                0x3401af34       0x42 tmp/obj/gcc/can_freertos_customization/timers.o
 *fill*         0x3401af76        0x2 
 .text.prvProcessExpiredTimer
                0x3401af78       0x60 tmp/obj/gcc/can_freertos_customization/timers.o
 .text.prvTimerTask
                0x3401afd8       0x24 tmp/obj/gcc/can_freertos_customization/timers.o
 .text.prvProcessTimerOrBlockTask
                0x3401affc       0x9c tmp/obj/gcc/can_freertos_customization/timers.o
 .text.prvGetNextExpireTime
                0x3401b098       0x48 tmp/obj/gcc/can_freertos_customization/timers.o
 .text.prvSampleTimeNow
                0x3401b0e0       0x40 tmp/obj/gcc/can_freertos_customization/timers.o
 .text.prvInsertTimerInActiveList
                0x3401b120       0x84 tmp/obj/gcc/can_freertos_customization/timers.o
 .text.prvProcessReceivedCommands
                0x3401b1a4      0x1bc tmp/obj/gcc/can_freertos_customization/timers.o
 .text.prvSwitchTimerLists
                0x3401b360       0x4c tmp/obj/gcc/can_freertos_customization/timers.o
 .text.prvCheckForValidListAndQueue
                0x3401b3ac       0x6c tmp/obj/gcc/can_freertos_customization/timers.o
 .text.xTimerIsTimerActive
                0x3401b418       0x56 tmp/obj/gcc/can_freertos_customization/timers.o
                0x3401b418                xTimerIsTimerActive
 .text.pvTimerGetTimerID
                0x3401b46e       0x44 tmp/obj/gcc/can_freertos_customization/timers.o
                0x3401b46e                pvTimerGetTimerID
 .text.vTimerSetTimerID
                0x3401b4b2       0x44 tmp/obj/gcc/can_freertos_customization/timers.o
                0x3401b4b2                vTimerSetTimerID
 *fill*         0x3401b4f6        0x2 
 .text.xTimerPendFunctionCallFromISR
                0x3401b4f8       0x40 tmp/obj/gcc/can_freertos_customization/timers.o
                0x3401b4f8                xTimerPendFunctionCallFromISR
 .text.xTimerPendFunctionCall
                0x3401b538       0x64 tmp/obj/gcc/can_freertos_customization/timers.o
                0x3401b538                xTimerPendFunctionCall
 .text.uxTimerGetTimerNumber
                0x3401b59c       0x18 tmp/obj/gcc/can_freertos_customization/timers.o
                0x3401b59c                uxTimerGetTimerNumber
 .text.vTimerSetTimerNumber
                0x3401b5b4       0x1c tmp/obj/gcc/can_freertos_customization/timers.o
                0x3401b5b4                vTimerSetTimerNumber
 .text.pxPortInitialiseStack
                0x3401b5d0       0x68 tmp/obj/gcc/can_freertos_customization/port_freertos.o
                0x3401b5d0                pxPortInitialiseStack
 .text.prvTaskExitError
                0x3401b638       0x60 tmp/obj/gcc/can_freertos_customization/port_freertos.o
 *fill*         0x3401b698        0x8 
 .text.SVC_Handler
                0x3401b6a0       0x28 tmp/obj/gcc/can_freertos_customization/port_freertos.o
                0x3401b6a0                SVC_Handler
 .text.prvPortStartFirstTask
                0x3401b6c8       0x2c tmp/obj/gcc/can_freertos_customization/port_freertos.o
 .text.xPortStartScheduler
                0x3401b6f4       0xfc tmp/obj/gcc/can_freertos_customization/port_freertos.o
                0x3401b6f4                xPortStartScheduler
 .text.vPortEndScheduler
                0x3401b7f0       0x3c tmp/obj/gcc/can_freertos_customization/port_freertos.o
                0x3401b7f0                vPortEndScheduler
 .text.vPortEnterCritical
                0x3401b82c       0x68 tmp/obj/gcc/can_freertos_customization/port_freertos.o
                0x3401b82c                vPortEnterCritical
 .text.vPortExitCritical
                0x3401b894       0x58 tmp/obj/gcc/can_freertos_customization/port_freertos.o
                0x3401b894                vPortExitCritical
 *fill*         0x3401b8ec        0x4 
 .text.PendSV_Handler
                0x3401b8f0       0x68 tmp/obj/gcc/can_freertos_customization/port_freertos.o
                0x3401b8f0                PendSV_Handler
 .text.SysTick_Handler
                0x3401b958       0x48 tmp/obj/gcc/can_freertos_customization/port_freertos.o
                0x3401b958                SysTick_Handler
 .text.vPortSetupTimerInterrupt
                0x3401b9a0       0x38 tmp/obj/gcc/can_freertos_customization/port_freertos.o
                0x3401b9a0                vPortSetupTimerInterrupt
 .text.vPortEnableVFP
                0x3401b9d8       0x18 tmp/obj/gcc/can_freertos_customization/port_freertos.o
 .text.vPortValidateInterruptPriority
                0x3401b9f0       0x88 tmp/obj/gcc/can_freertos_customization/port_freertos.o
                0x3401b9f0                vPortValidateInterruptPriority
 .text.pvPortMalloc
                0x3401ba78      0x1cc tmp/obj/gcc/can_freertos_customization/heap_4.o
                0x3401ba78                pvPortMalloc
 .text.vPortFree
                0x3401bc44       0xcc tmp/obj/gcc/can_freertos_customization/heap_4.o
                0x3401bc44                vPortFree
 .text.xPortGetFreeHeapSize
                0x3401bd10       0x18 tmp/obj/gcc/can_freertos_customization/heap_4.o
                0x3401bd10                xPortGetFreeHeapSize
 .text.xPortGetMinimumEverFreeHeapSize
                0x3401bd28       0x18 tmp/obj/gcc/can_freertos_customization/heap_4.o
                0x3401bd28                xPortGetMinimumEverFreeHeapSize
 .text.vPortInitialiseBlocks
                0x3401bd40        0xe tmp/obj/gcc/can_freertos_customization/heap_4.o
                0x3401bd40                vPortInitialiseBlocks
 *fill*         0x3401bd4e        0x2 
 .text.prvHeapInit
                0x3401bd50       0xc4 tmp/obj/gcc/can_freertos_customization/heap_4.o
 .text.prvInsertBlockIntoFreeList
                0x3401be14       0xb4 tmp/obj/gcc/can_freertos_customization/heap_4.o
 .text.vPortGetHeapStats
                0x3401bec8       0xbc tmp/obj/gcc/can_freertos_customization/heap_4.o
                0x3401bec8                vPortGetHeapStats
 .text.init_data_bss
                0x3401bf84      0x138 C:\cygwin64\tmp\ccS5tM1S.o
                0x3401bf84                init_data_bss
 .text.memcpy   0x3401c0bc       0x1c c:/compiler/gcc-arm-none-eabi-10.3/bin/../lib/gcc/arm-none-eabi/10.3.1/../../../../arm-none-eabi/lib/thumb/v7e-m+fp/hard\libg_nano.a(lib_a-memcpy-stub.o)
                0x3401c0bc                memcpy
 .text.memset   0x3401c0d8       0x10 c:/compiler/gcc-arm-none-eabi-10.3/bin/../lib/gcc/arm-none-eabi/10.3.1/../../../../arm-none-eabi/lib/thumb/v7e-m+fp/hard\libg_nano.a(lib_a-memset.o)
                0x3401c0d8                memset
 .text._sprintf_r
                0x3401c0e8       0x38 c:/compiler/gcc-arm-none-eabi-10.3/bin/../lib/gcc/arm-none-eabi/10.3.1/../../../../arm-none-eabi/lib/thumb/v7e-m+fp/hard\libg_nano.a(lib_a-sprintf.o)
                0x3401c0e8                _sprintf_r
                0x3401c0e8                _siprintf_r
 .text.sprintf  0x3401c120       0x40 c:/compiler/gcc-arm-none-eabi-10.3/bin/../lib/gcc/arm-none-eabi/10.3.1/../../../../arm-none-eabi/lib/thumb/v7e-m+fp/hard\libg_nano.a(lib_a-sprintf.o)
                0x3401c120                siprintf
                0x3401c120                sprintf
 .text.strcpy   0x3401c160       0x10 c:/compiler/gcc-arm-none-eabi-10.3/bin/../lib/gcc/arm-none-eabi/10.3.1/../../../../arm-none-eabi/lib/thumb/v7e-m+fp/hard\libg_nano.a(lib_a-strcpy.o)
                0x3401c160                strcpy
 .text.__ssputs_r
                0x3401c170       0xb6 c:/compiler/gcc-arm-none-eabi-10.3/bin/../lib/gcc/arm-none-eabi/10.3.1/../../../../arm-none-eabi/lib/thumb/v7e-m+fp/hard\libg_nano.a(lib_a-nano-svfprintf.o)
                0x3401c170                __ssputs_r
 .text.__ssprint_r
                0x3401c226       0xf6 c:/compiler/gcc-arm-none-eabi-10.3/bin/../lib/gcc/arm-none-eabi/10.3.1/../../../../arm-none-eabi/lib/thumb/v7e-m+fp/hard\libg_nano.a(lib_a-nano-svfprintf.o)
                0x3401c226                __ssprint_r
 .text._svfprintf_r
                0x3401c31c      0x200 c:/compiler/gcc-arm-none-eabi-10.3/bin/../lib/gcc/arm-none-eabi/10.3.1/../../../../arm-none-eabi/lib/thumb/v7e-m+fp/hard\libg_nano.a(lib_a-nano-svfprintf.o)
                0x3401c31c                _svfiprintf_r
                0x3401c31c                _svfprintf_r
 .text._printf_common
                0x3401c51c       0xda c:/compiler/gcc-arm-none-eabi-10.3/bin/../lib/gcc/arm-none-eabi/10.3.1/../../../../arm-none-eabi/lib/thumb/v7e-m+fp/hard\libg_nano.a(lib_a-nano-vfprintf_i.o)
                0x3401c51c                _printf_common
 *fill*         0x3401c5f6        0x2 
 .text._printf_i
                0x3401c5f8      0x24c c:/compiler/gcc-arm-none-eabi-10.3/bin/../lib/gcc/arm-none-eabi/10.3.1/../../../../arm-none-eabi/lib/thumb/v7e-m+fp/hard\libg_nano.a(lib_a-nano-vfprintf_i.o)
                0x3401c5f8                _printf_i
 .text.memmove  0x3401c844       0x34 c:/compiler/gcc-arm-none-eabi-10.3/bin/../lib/gcc/arm-none-eabi/10.3.1/../../../../arm-none-eabi/lib/thumb/v7e-m+fp/hard\libg_nano.a(lib_a-memmove.o)
                0x3401c844                memmove
 .text._free_r  0x3401c878       0x98 c:/compiler/gcc-arm-none-eabi-10.3/bin/../lib/gcc/arm-none-eabi/10.3.1/../../../../arm-none-eabi/lib/thumb/v7e-m+fp/hard\libg_nano.a(lib_a-nano-freer.o)
                0x3401c878                _free_r
 .text.sbrk_aligned
                0x3401c910       0x40 c:/compiler/gcc-arm-none-eabi-10.3/bin/../lib/gcc/arm-none-eabi/10.3.1/../../../../arm-none-eabi/lib/thumb/v7e-m+fp/hard\libg_nano.a(lib_a-nano-mallocr.o)
 .text._malloc_r
                0x3401c950       0xe8 c:/compiler/gcc-arm-none-eabi-10.3/bin/../lib/gcc/arm-none-eabi/10.3.1/../../../../arm-none-eabi/lib/thumb/v7e-m+fp/hard\libg_nano.a(lib_a-nano-mallocr.o)
                0x3401c950                _malloc_r
 .text._realloc_r
                0x3401ca38       0x5e c:/compiler/gcc-arm-none-eabi-10.3/bin/../lib/gcc/arm-none-eabi/10.3.1/../../../../arm-none-eabi/lib/thumb/v7e-m+fp/hard\libg_nano.a(lib_a-nano-reallocr.o)
                0x3401ca38                _realloc_r
 *fill*         0x3401ca96        0x2 
 .text._sbrk_r  0x3401ca98       0x20 c:/compiler/gcc-arm-none-eabi-10.3/bin/../lib/gcc/arm-none-eabi/10.3.1/../../../../arm-none-eabi/lib/thumb/v7e-m+fp/hard\libg_nano.a(lib_a-sbrkr.o)
                0x3401ca98                _sbrk_r
 .text.__malloc_lock
                0x3401cab8        0xc c:/compiler/gcc-arm-none-eabi-10.3/bin/../lib/gcc/arm-none-eabi/10.3.1/../../../../arm-none-eabi/lib/thumb/v7e-m+fp/hard\libg_nano.a(lib_a-mlock.o)
                0x3401cab8                __malloc_lock
 .text.__malloc_unlock
                0x3401cac4        0xc c:/compiler/gcc-arm-none-eabi-10.3/bin/../lib/gcc/arm-none-eabi/10.3.1/../../../../arm-none-eabi/lib/thumb/v7e-m+fp/hard\libg_nano.a(lib_a-mlock.o)
                0x3401cac4                __malloc_unlock
 .text._malloc_usable_size_r
                0x3401cad0       0x10 c:/compiler/gcc-arm-none-eabi-10.3/bin/../lib/gcc/arm-none-eabi/10.3.1/../../../../arm-none-eabi/lib/thumb/v7e-m+fp/hard\libg_nano.a(lib_a-nano-msizer.o)
                0x3401cad0                _malloc_usable_size_r
 .text.cleanup_glue
                0x3401cae0       0x1a c:/compiler/gcc-arm-none-eabi-10.3/bin/../lib/gcc/arm-none-eabi/10.3.1/../../../../arm-none-eabi/lib/thumb/v7e-m+fp/hard\libg_nano.a(lib_a-reent.o)
                0x3401cae0                cleanup_glue
 *fill*         0x3401cafa        0x2 
 .text._reclaim_reent
                0x3401cafc       0xb8 c:/compiler/gcc-arm-none-eabi-10.3/bin/../lib/gcc/arm-none-eabi/10.3.1/../../../../arm-none-eabi/lib/thumb/v7e-m+fp/hard\libg_nano.a(lib_a-reent.o)
                0x3401cafc                _reclaim_reent
 .text.__retarget_lock_init
                0x3401cbb4        0x2 c:/compiler/gcc-arm-none-eabi-10.3/bin/../lib/gcc/arm-none-eabi/10.3.1/../../../../arm-none-eabi/lib/thumb/v7e-m+fp/hard\libg_nano.a(lib_a-lock.o)
                0x3401cbb4                __retarget_lock_init
 .text.__retarget_lock_init_recursive
                0x3401cbb6        0x2 c:/compiler/gcc-arm-none-eabi-10.3/bin/../lib/gcc/arm-none-eabi/10.3.1/../../../../arm-none-eabi/lib/thumb/v7e-m+fp/hard\libg_nano.a(lib_a-lock.o)
                0x3401cbb6                __retarget_lock_init_recursive
 .text.__retarget_lock_close
                0x3401cbb8        0x2 c:/compiler/gcc-arm-none-eabi-10.3/bin/../lib/gcc/arm-none-eabi/10.3.1/../../../../arm-none-eabi/lib/thumb/v7e-m+fp/hard\libg_nano.a(lib_a-lock.o)
                0x3401cbb8                __retarget_lock_close
 .text.__retarget_lock_close_recursive
                0x3401cbba        0x2 c:/compiler/gcc-arm-none-eabi-10.3/bin/../lib/gcc/arm-none-eabi/10.3.1/../../../../arm-none-eabi/lib/thumb/v7e-m+fp/hard\libg_nano.a(lib_a-lock.o)
                0x3401cbba                __retarget_lock_close_recursive
 .text.__retarget_lock_acquire
                0x3401cbbc        0x2 c:/compiler/gcc-arm-none-eabi-10.3/bin/../lib/gcc/arm-none-eabi/10.3.1/../../../../arm-none-eabi/lib/thumb/v7e-m+fp/hard\libg_nano.a(lib_a-lock.o)
                0x3401cbbc                __retarget_lock_acquire
 .text.__retarget_lock_acquire_recursive
                0x3401cbbe        0x2 c:/compiler/gcc-arm-none-eabi-10.3/bin/../lib/gcc/arm-none-eabi/10.3.1/../../../../arm-none-eabi/lib/thumb/v7e-m+fp/hard\libg_nano.a(lib_a-lock.o)
                0x3401cbbe                __retarget_lock_acquire_recursive
 .text.__retarget_lock_try_acquire
                0x3401cbc0        0x4 c:/compiler/gcc-arm-none-eabi-10.3/bin/../lib/gcc/arm-none-eabi/10.3.1/../../../../arm-none-eabi/lib/thumb/v7e-m+fp/hard\libg_nano.a(lib_a-lock.o)
                0x3401cbc0                __retarget_lock_try_acquire
 .text.__retarget_lock_try_acquire_recursive
                0x3401cbc4        0x4 c:/compiler/gcc-arm-none-eabi-10.3/bin/../lib/gcc/arm-none-eabi/10.3.1/../../../../arm-none-eabi/lib/thumb/v7e-m+fp/hard\libg_nano.a(lib_a-lock.o)
                0x3401cbc4                __retarget_lock_try_acquire_recursive
 .text.__retarget_lock_release
                0x3401cbc8        0x2 c:/compiler/gcc-arm-none-eabi-10.3/bin/../lib/gcc/arm-none-eabi/10.3.1/../../../../arm-none-eabi/lib/thumb/v7e-m+fp/hard\libg_nano.a(lib_a-lock.o)
                0x3401cbc8                __retarget_lock_release
 .text.__retarget_lock_release_recursive
                0x3401cbca        0x2 c:/compiler/gcc-arm-none-eabi-10.3/bin/../lib/gcc/arm-none-eabi/10.3.1/../../../../arm-none-eabi/lib/thumb/v7e-m+fp/hard\libg_nano.a(lib_a-lock.o)
                0x3401cbca                __retarget_lock_release_recursive
 .text._sbrk    0x3401cbcc       0x1c c:/compiler/gcc-arm-none-eabi-10.3/bin/../lib/gcc/arm-none-eabi/10.3.1/../../../../arm-none-eabi/lib/thumb/v7e-m+fp/hard\libnosys.a(sbrk.o)
                0x3401cbcc                _sbrk
                0x3401cbe8                . = ALIGN (0x4)
 *(.mcal_text)
                0x3401cbe8                . = ALIGN (0x4)
 *(.init)
                0x3401cbe8                . = ALIGN (0x4)
 *(.fini)
                0x3401cbe8                . = ALIGN (0x4)
 *(.rodata)
 .rodata        0x3401cbe8       0x2c tmp/obj/gcc/can_freertos_customization/main.o
 .rodata        0x3401cc14       0x10 tmp/obj/gcc/can_freertos_customization/Can_Llce.o
 .rodata        0x3401cc24       0x30 tmp/obj/gcc/can_freertos_customization/tasks.o
 .rodata        0x3401cc54        0xd tmp/obj/gcc/can_freertos_customization/timers.o
 *(.rodata*)
 *fill*         0x3401cc61        0x3 
 .rodata.Llce_CoreData
                0x3401cc64       0x40 tmp/obj/gcc/can_freertos_customization/Llce_Firmware_Load.o
 .rodata.Llce_Can_AfRoutingTable
                0x3401cca4       0x50 tmp/obj/gcc/can_freertos_customization/Can_43_LLCE_AFcfg.o
                0x3401cca4                Llce_Can_AfRoutingTable
 .rodata.CanStatic_ConfigSet
                0x3401ccf4        0x8 tmp/obj/gcc/can_freertos_customization/Can_43_LLCE_Cfg.o
                0x3401ccf4                CanStatic_ConfigSet
 *fill*         0x3401ccfc        0x4 
 .rodata.CanFilterId2CustomIdx
                0x3401cd00       0x84 tmp/obj/gcc/can_freertos_customization/Can_43_LLCE_VS_0_PBcfg.o
 .rodata.PlatformInitConfig
                0x3401cd84       0xc0 tmp/obj/gcc/can_freertos_customization/Can_43_LLCE_VS_0_PBcfg.o
 .rodata.MessageBufferConfigs_PB
                0x3401ce44      0x1ea tmp/obj/gcc/can_freertos_customization/Can_43_LLCE_VS_0_PBcfg.o
 *fill*         0x3401d02e        0x2 
 .rodata.ControllerBaudrateCfgSet_PB_0
                0x3401d030       0x14 tmp/obj/gcc/can_freertos_customization/Can_43_LLCE_VS_0_PBcfg.o
 .rodata.ControllerBaudrateCfgSet_PB_1
                0x3401d044       0x14 tmp/obj/gcc/can_freertos_customization/Can_43_LLCE_VS_0_PBcfg.o
 .rodata.ControllerBaudrateCfgSet_PB_2
                0x3401d058       0x14 tmp/obj/gcc/can_freertos_customization/Can_43_LLCE_VS_0_PBcfg.o
 .rodata.ControllerBaudrateCfgSet_PB_3
                0x3401d06c       0x14 tmp/obj/gcc/can_freertos_customization/Can_43_LLCE_VS_0_PBcfg.o
 .rodata.ControllerBaudrateCfgSet_PB_4
                0x3401d080       0x14 tmp/obj/gcc/can_freertos_customization/Can_43_LLCE_VS_0_PBcfg.o
 .rodata.ControllerBaudrateCfgSet_PB_5
                0x3401d094       0x14 tmp/obj/gcc/can_freertos_customization/Can_43_LLCE_VS_0_PBcfg.o
 .rodata.ControllerBaudrateCfgSet_PB_6
                0x3401d0a8       0x14 tmp/obj/gcc/can_freertos_customization/Can_43_LLCE_VS_0_PBcfg.o
 .rodata.ControllerBaudrateCfgSet_PB_7
                0x3401d0bc       0x14 tmp/obj/gcc/can_freertos_customization/Can_43_LLCE_VS_0_PBcfg.o
 .rodata.ControllerBaudrateCfgSet_PB_8
                0x3401d0d0       0x14 tmp/obj/gcc/can_freertos_customization/Can_43_LLCE_VS_0_PBcfg.o
 .rodata.ControllerBaudrateCfgSet_PB_9
                0x3401d0e4       0x14 tmp/obj/gcc/can_freertos_customization/Can_43_LLCE_VS_0_PBcfg.o
 .rodata.ControllerBaudrateCfgSet_PB_10
                0x3401d0f8       0x14 tmp/obj/gcc/can_freertos_customization/Can_43_LLCE_VS_0_PBcfg.o
 .rodata.ControllerBaudrateCfgSet_PB_11
                0x3401d10c       0x14 tmp/obj/gcc/can_freertos_customization/Can_43_LLCE_VS_0_PBcfg.o
 .rodata.ControllerBaudrateCfgSet_PB_12
                0x3401d120       0x14 tmp/obj/gcc/can_freertos_customization/Can_43_LLCE_VS_0_PBcfg.o
 .rodata.ControllerBaudrateCfgSet_PB_13
                0x3401d134       0x14 tmp/obj/gcc/can_freertos_customization/Can_43_LLCE_VS_0_PBcfg.o
 .rodata.ControllerBaudrateCfgSet_PB_14
                0x3401d148       0x14 tmp/obj/gcc/can_freertos_customization/Can_43_LLCE_VS_0_PBcfg.o
 .rodata.ControllerBaudrateCfgSet_PB_15
                0x3401d15c       0x14 tmp/obj/gcc/can_freertos_customization/Can_43_LLCE_VS_0_PBcfg.o
 .rodata.ControllerInit
                0x3401d170       0x80 tmp/obj/gcc/can_freertos_customization/Can_43_LLCE_VS_0_PBcfg.o
 .rodata.ControllerDescriptors_PB
                0x3401d1f0      0x100 tmp/obj/gcc/can_freertos_customization/Can_43_LLCE_VS_0_PBcfg.o
 .rodata.HwControllerDescriptors_PB
                0x3401d2f0       0x80 tmp/obj/gcc/can_freertos_customization/Can_43_LLCE_VS_0_PBcfg.o
 .rodata.Can_43_LLCE_Config_VS_0
                0x3401d370       0x34 tmp/obj/gcc/can_freertos_customization/Can_43_LLCE_VS_0_PBcfg.o
                0x3401d370                Can_43_LLCE_Config_VS_0
 .rodata.Mcu_aClockConfigPB_VS_0
                0x3401d3a4      0x590 tmp/obj/gcc/can_freertos_customization/Clock_Ip_VS_0_PBcfg.o
                0x3401d3a4                Mcu_aClockConfigPB_VS_0
 .rodata.Dio_au8PortSiul2Instance
                0x3401d934        0xc tmp/obj/gcc/can_freertos_customization/Dio_Cfg.o
                0x3401d934                Dio_au8PortSiul2Instance
 .rodata.Dio_au8Port0OffsetInSiul2Instance
                0x3401d940        0x2 tmp/obj/gcc/can_freertos_customization/Dio_Cfg.o
                0x3401d940                Dio_au8Port0OffsetInSiul2Instance
 *fill*         0x3401d942        0x2 
 .rodata.Dio_au32ChannelToPartitionMap
                0x3401d944      0x2fc tmp/obj/gcc/can_freertos_customization/Dio_Cfg.o
                0x3401d944                Dio_au32ChannelToPartitionMap
 .rodata.Dio_au32PortToPartitionMap
                0x3401dc40       0x30 tmp/obj/gcc/can_freertos_customization/Dio_Cfg.o
                0x3401dc40                Dio_au32PortToPartitionMap
 .rodata.Dio_aAvailablePinsForWrite
                0x3401dc70       0x18 tmp/obj/gcc/can_freertos_customization/Dio_Cfg.o
                0x3401dc70                Dio_aAvailablePinsForWrite
 .rodata.Dio_aAvailablePinsForRead
                0x3401dc88       0x18 tmp/obj/gcc/can_freertos_customization/Dio_Cfg.o
                0x3401dc88                Dio_aAvailablePinsForRead
 .rodata.Dio_Config
                0x3401dca0       0x10 tmp/obj/gcc/can_freertos_customization/Dio_Cfg.o
                0x3401dca0                Dio_Config
 .rodata.aIrqConfiguration
                0x3401dcb0      0x2dc tmp/obj/gcc/can_freertos_customization/IntCtrl_Ip_Cfg.o
 .rodata.intCtrlConfig
                0x3401df8c        0x8 tmp/obj/gcc/can_freertos_customization/IntCtrl_Ip_Cfg.o
                0x3401df8c                intCtrlConfig
 .rodata.aIrqRouteConfig
                0x3401df94      0x5b8 tmp/obj/gcc/can_freertos_customization/IntCtrl_Ip_Cfg.o
 .rodata.intRouteConfig
                0x3401e54c        0x8 tmp/obj/gcc/can_freertos_customization/IntCtrl_Ip_Cfg.o
                0x3401e54c                intRouteConfig
 .rodata.Mcu_PreCompileConfig
                0x3401e554       0x1c tmp/obj/gcc/can_freertos_customization/Mcu_VS_0_PBcfg.o
                0x3401e554                Mcu_PreCompileConfig
 .rodata.OsIf_xPredefinedConfig
                0x3401e570        0x8 tmp/obj/gcc/can_freertos_customization/OsIf_Cfg.o
 .rodata.OsIf_apxPredefinedConfig
                0x3401e578        0x4 tmp/obj/gcc/can_freertos_customization/OsIf_Cfg.o
                0x3401e578                OsIf_apxPredefinedConfig
 .rodata.Platform_uConfiguration
                0x3401e57c        0x8 tmp/obj/gcc/can_freertos_customization/Platform_Cfg.o
 .rodata.Platform_Config
                0x3401e584        0x4 tmp/obj/gcc/can_freertos_customization/Platform_Cfg.o
                0x3401e584                Platform_Config
 .rodata.ipwConfig
                0x3401e588        0x8 tmp/obj/gcc/can_freertos_customization/Platform_Ipw_Cfg.o
                0x3401e588                ipwConfig
 .rodata.ipwNonCoreConfig
                0x3401e590        0x4 tmp/obj/gcc/can_freertos_customization/Platform_Ipw_Cfg.o
                0x3401e590                ipwNonCoreConfig
 .rodata.Port_SIUL2_0_au16InMuxSettingsIndex
                0x3401e594       0xc0 tmp/obj/gcc/can_freertos_customization/Port_Cfg.o
 .rodata.Port_SIUL2_1_au16InMuxSettingsIndex
                0x3401e654      0x17e tmp/obj/gcc/can_freertos_customization/Port_Cfg.o
 *fill*         0x3401e7d2        0x2 
 .rodata.Port_SIUL2_0_au16PinModeAvailability
                0x3401e7d4      0x1f8 tmp/obj/gcc/can_freertos_customization/Port_Cfg.o
 .rodata.Port_SIUL2_1_au16PinModeAvailability
                0x3401e9cc      0x1f8 tmp/obj/gcc/can_freertos_customization/Port_Cfg.o
 .rodata.Port_SIUL2_0_aInMuxSettings
                0x3401ebc4      0x3a8 tmp/obj/gcc/can_freertos_customization/Port_Cfg.o
 .rodata.Port_SIUL2_1_aInMuxSettings
                0x3401ef6c      0x2b4 tmp/obj/gcc/can_freertos_customization/Port_Cfg.o
 .rodata.Port_SIUL2_0_aInoutMuxSettings
                0x3401f220      0x3f8 tmp/obj/gcc/can_freertos_customization/Port_Cfg.o
 .rodata.Port_SIUL2_1_aInoutMuxSettings
                0x3401f618      0x238 tmp/obj/gcc/can_freertos_customization/Port_Cfg.o
 .rodata.Port_au16NumInoutMuxSettings
                0x3401f850        0x4 tmp/obj/gcc/can_freertos_customization/Port_Cfg.o
                0x3401f850                Port_au16NumInoutMuxSettings
 .rodata.Port_apSiul2InstancePinModeAvailability
                0x3401f854        0x8 tmp/obj/gcc/can_freertos_customization/Port_Cfg.o
                0x3401f854                Port_apSiul2InstancePinModeAvailability
 .rodata.Port_apInMuxSettings
                0x3401f85c        0x8 tmp/obj/gcc/can_freertos_customization/Port_Cfg.o
                0x3401f85c                Port_apInMuxSettings
 .rodata.Port_apInMuxSettingsIndex
                0x3401f864        0x8 tmp/obj/gcc/can_freertos_customization/Port_Cfg.o
                0x3401f864                Port_apInMuxSettingsIndex
 .rodata.Port_apInoutMuxSettings
                0x3401f86c        0x8 tmp/obj/gcc/can_freertos_customization/Port_Cfg.o
                0x3401f86c                Port_apInoutMuxSettings
 .rodata.au8Port_PartitionList_VS_0
                0x3401f874        0x1 tmp/obj/gcc/can_freertos_customization/Port_VS_0_PBcfg.o
                0x3401f874                au8Port_PartitionList_VS_0
 *fill*         0x3401f875        0x3 
 .rodata.au32Port_PinToPartitionMap_VS_0
                0x3401f878       0xac tmp/obj/gcc/can_freertos_customization/Port_VS_0_PBcfg.o
 .rodata.Port_aUnusedPads_VS_0
                0x3401f924      0x1c4 tmp/obj/gcc/can_freertos_customization/Port_VS_0_PBcfg.o
 .rodata.Port_UnusedPinConfig_VS_0
                0x3401fae8        0x8 tmp/obj/gcc/can_freertos_customization/Port_VS_0_PBcfg.o
 .rodata.Port_aUsedPinConfigs_VS_0
                0x3401faf0      0x35c tmp/obj/gcc/can_freertos_customization/Port_VS_0_PBcfg.o
 .rodata.Port_aSIUL2_0_ImcrInitConfig_VS_0
                0x3401fe4c       0x54 tmp/obj/gcc/can_freertos_customization/Port_VS_0_PBcfg.o
 .rodata.Port_aSIUL2_1_ImcrInitConfig_VS_0
                0x3401fea0      0x1f0 tmp/obj/gcc/can_freertos_customization/Port_VS_0_PBcfg.o
 .rodata.Port_Config
                0x34020090       0x28 tmp/obj/gcc/can_freertos_customization/Port_VS_0_PBcfg.o
                0x34020090                Port_Config
 .rodata.Power_Ip_MC_ME_aPartition0CoreConfigPB_0_VS_0
                0x340200b8       0x24 tmp/obj/gcc/can_freertos_customization/Power_Ip_VS_0_PBcfg.o
 .rodata.Power_Ip_MC_ME_aPartition1CoreConfigPB_0_VS_0
                0x340200dc       0x30 tmp/obj/gcc/can_freertos_customization/Power_Ip_VS_0_PBcfg.o
 .rodata.Power_Ip_MC_ME_aPartition0CofbConfigPB_0_VS_0
                0x3402010c        0xc tmp/obj/gcc/can_freertos_customization/Power_Ip_VS_0_PBcfg.o
 .rodata.Power_Ip_MC_ME_aPartition2CofbConfigPB_0_VS_0
                0x34020118        0xc tmp/obj/gcc/can_freertos_customization/Power_Ip_VS_0_PBcfg.o
 .rodata.Power_Ip_MC_ME_aPartitionConfigPB_0_VS_0
                0x34020124       0x70 tmp/obj/gcc/can_freertos_customization/Power_Ip_VS_0_PBcfg.o
 .rodata.Power_Ip_MC_ME_ModeConfigPB_0_VS_0
                0x34020194        0x4 tmp/obj/gcc/can_freertos_customization/Power_Ip_VS_0_PBcfg.o
                0x34020194                Power_Ip_MC_ME_ModeConfigPB_0_VS_0
 .rodata.Power_Ip_MC_RGM_aDomain0CoreConfigPB_0_VS_0
                0x34020198       0x24 tmp/obj/gcc/can_freertos_customization/Power_Ip_VS_0_PBcfg.o
 .rodata.Power_Ip_MC_RGM_aDomain1CoreConfigPB_0_VS_0
                0x340201bc       0x30 tmp/obj/gcc/can_freertos_customization/Power_Ip_VS_0_PBcfg.o
 .rodata.Power_Ip_MC_RGM_aDomain0CofbConfigPB_0_VS_0
                0x340201ec        0xc tmp/obj/gcc/can_freertos_customization/Power_Ip_VS_0_PBcfg.o
 .rodata.Power_Ip_MC_RGM_aDomainConfigPB_0_VS_0
                0x340201f8       0x60 tmp/obj/gcc/can_freertos_customization/Power_Ip_VS_0_PBcfg.o
 .rodata.Power_Ip_MC_RGM_ModeConfigPB_0_VS_0
                0x34020258        0x4 tmp/obj/gcc/can_freertos_customization/Power_Ip_VS_0_PBcfg.o
 .rodata.Power_Ip_aModeConfigPB_VS_0
                0x3402025c       0x10 tmp/obj/gcc/can_freertos_customization/Power_Ip_VS_0_PBcfg.o
                0x3402025c                Power_Ip_aModeConfigPB_VS_0
 .rodata.Power_Ip_MC_RGM_ConfigPB_VS_0
                0x3402026c        0xc tmp/obj/gcc/can_freertos_customization/Power_Ip_VS_0_PBcfg.o
 .rodata.Power_Ip_PMC_ConfigPB_VS_0
                0x34020278        0x4 tmp/obj/gcc/can_freertos_customization/Power_Ip_VS_0_PBcfg.o
 .rodata.Power_Ip_HwIPsConfigPB_VS_0
                0x3402027c        0x8 tmp/obj/gcc/can_freertos_customization/Power_Ip_VS_0_PBcfg.o
                0x3402027c                Power_Ip_HwIPsConfigPB_VS_0
 .rodata.g_pin_mux_InitConfigArr_VS_0
                0x34020284      0xa14 tmp/obj/gcc/can_freertos_customization/Siul2_Port_Ip_VS_0_PBcfg.o
                0x34020284                g_pin_mux_InitConfigArr_VS_0
 .rodata.Spi_Ip_DeviceAttributes_SpiExternalDevice_0_TIC12400_VS_0
                0x34020c98       0x14 tmp/obj/gcc/can_freertos_customization/Spi_Ip_VS_0_PBcfg.o
                0x34020c98                Spi_Ip_DeviceAttributes_SpiExternalDevice_0_TIC12400_VS_0
 .rodata.Spi_Ip_PhyUnitConfig_SpiPhyUnit_0_VS_0
                0x34020cac        0xc tmp/obj/gcc/can_freertos_customization/Spi_Ip_VS_0_PBcfg.o
                0x34020cac                Spi_Ip_PhyUnitConfig_SpiPhyUnit_0_VS_0
 .rodata.Spi_ExternalDeviceConfig_SpiExternalDevice_0_TIC12400_VS_0
                0x34020cb8        0xc tmp/obj/gcc/can_freertos_customization/Spi_Ipw_VS_0_PBcfg.o
 .rodata.Spi_aExternalDeviceConfigList_VS_0
                0x34020cc4        0x4 tmp/obj/gcc/can_freertos_customization/Spi_Ipw_VS_0_PBcfg.o
                0x34020cc4                Spi_aExternalDeviceConfigList_VS_0
 .rodata.Spi_HwUnitConfig_SpiPhyUnit_0_VS_0
                0x34020cc8       0x10 tmp/obj/gcc/can_freertos_customization/Spi_Ipw_VS_0_PBcfg.o
 .rodata.Spi_aHwUnitConfigList_VS_0
                0x34020cd8        0x4 tmp/obj/gcc/can_freertos_customization/Spi_Ipw_VS_0_PBcfg.o
                0x34020cd8                Spi_aHwUnitConfigList_VS_0
 .rodata.Spi_ChannelConfig_SpiChannel_0_TIC12400_VS_0
                0x34020cdc       0x18 tmp/obj/gcc/can_freertos_customization/Spi_VS_0_PBcfg.o
 .rodata.Spi_aChannelConfigList_VS_0
                0x34020cf4        0x4 tmp/obj/gcc/can_freertos_customization/Spi_VS_0_PBcfg.o
 .rodata.Spi_SpiJob_0_TIC12400_ChannelAssignment_VS_0
                0x34020cf8        0x1 tmp/obj/gcc/can_freertos_customization/Spi_VS_0_PBcfg.o
 *fill*         0x34020cf9        0x3 
 .rodata.Spi_JobConfig_SpiJob_0_TIC12400_VS_0
                0x34020cfc       0x24 tmp/obj/gcc/can_freertos_customization/Spi_VS_0_PBcfg.o
 .rodata.Spi_aJobConfigList_VS_0
                0x34020d20        0x4 tmp/obj/gcc/can_freertos_customization/Spi_VS_0_PBcfg.o
 .rodata.Spi_SpiSequence_0_JobAssignment_VS_0
                0x34020d24        0x2 tmp/obj/gcc/can_freertos_customization/Spi_VS_0_PBcfg.o
 *fill*         0x34020d26        0x2 
 .rodata.Spi_SequenceConfig_SpiSequence_0_VS_0
                0x34020d28       0x14 tmp/obj/gcc/can_freertos_customization/Spi_VS_0_PBcfg.o
 .rodata.Spi_aSequenceConfigList_VS_0
                0x34020d3c        0x4 tmp/obj/gcc/can_freertos_customization/Spi_VS_0_PBcfg.o
 .rodata.Spi_Config
                0x34020d40       0x20 tmp/obj/gcc/can_freertos_customization/Spi_VS_0_PBcfg.o
 .rodata.Spi_PBCfgVariantPredefined
                0x34020d60        0x4 tmp/obj/gcc/can_freertos_customization/Spi_VS_0_PBcfg.o
                0x34020d60                Spi_PBCfgVariantPredefined
 .rodata.Clock_Ip_au8DividerCallbackIndex
                0x34020d64        0xc tmp/obj/gcc/can_freertos_customization/Clock_Ip_Data.o
                0x34020d64                Clock_Ip_au8DividerCallbackIndex
 .rodata.Clock_Ip_au8DividerTriggerCallbackIndex
                0x34020d70        0xc tmp/obj/gcc/can_freertos_customization/Clock_Ip_Data.o
                0x34020d70                Clock_Ip_au8DividerTriggerCallbackIndex
 .rodata.Clock_Ip_au8XoscCallbackIndex
                0x34020d7c        0xc tmp/obj/gcc/can_freertos_customization/Clock_Ip_Data.o
                0x34020d7c                Clock_Ip_au8XoscCallbackIndex
 .rodata.Clock_Ip_au8IrcoscCallbackIndex
                0x34020d88        0xc tmp/obj/gcc/can_freertos_customization/Clock_Ip_Data.o
                0x34020d88                Clock_Ip_au8IrcoscCallbackIndex
 .rodata.Clock_Ip_au8GateCallbackIndex
                0x34020d94        0xc tmp/obj/gcc/can_freertos_customization/Clock_Ip_Data.o
                0x34020d94                Clock_Ip_au8GateCallbackIndex
 .rodata.Clock_Ip_au8FractionalDividerCallbackIndex
                0x34020da0        0xc tmp/obj/gcc/can_freertos_customization/Clock_Ip_Data.o
                0x34020da0                Clock_Ip_au8FractionalDividerCallbackIndex
 .rodata.Clock_Ip_au8PllCallbackIndex
                0x34020dac        0xc tmp/obj/gcc/can_freertos_customization/Clock_Ip_Data.o
                0x34020dac                Clock_Ip_au8PllCallbackIndex
 .rodata.Clock_Ip_au8SelectorCallbackIndex
                0x34020db8        0xc tmp/obj/gcc/can_freertos_customization/Clock_Ip_Data.o
                0x34020db8                Clock_Ip_au8SelectorCallbackIndex
 .rodata.Clock_Ip_au8PcfsCallbackIndex
                0x34020dc4        0xc tmp/obj/gcc/can_freertos_customization/Clock_Ip_Data.o
                0x34020dc4                Clock_Ip_au8PcfsCallbackIndex
 .rodata.Clock_Ip_au8CmuCallbackIndex
                0x34020dd0        0xc tmp/obj/gcc/can_freertos_customization/Clock_Ip_Data.o
                0x34020dd0                Clock_Ip_au8CmuCallbackIndex
 .rodata.Clock_Ip_au8ClockFeatures
                0x34020ddc      0x65d tmp/obj/gcc/can_freertos_customization/Clock_Ip_Data.o
                0x34020ddc                Clock_Ip_au8ClockFeatures
 *fill*         0x34021439        0x3 
 .rodata.Clock_Ip_au16SelectorEntryHardwareValue
                0x3402143c      0x16a tmp/obj/gcc/can_freertos_customization/Clock_Ip_Data.o
                0x3402143c                Clock_Ip_au16SelectorEntryHardwareValue
 *fill*         0x340215a6        0x2 
 .rodata.Clock_Ip_au16SelectorEntryRtcHardwareValue
                0x340215a8       0x96 tmp/obj/gcc/can_freertos_customization/Clock_Ip_Data.o
                0x340215a8                Clock_Ip_au16SelectorEntryRtcHardwareValue
 *fill*         0x3402163e        0x2 
 .rodata.Clock_Ip_apxCgm
                0x34021640      0x198 tmp/obj/gcc/can_freertos_customization/Clock_Ip_Data.o
                0x34021640                Clock_Ip_apxCgm
 .rodata.Clock_Ip_apxCgmPcfs
                0x340217d8       0x18 tmp/obj/gcc/can_freertos_customization/Clock_Ip_Data.o
                0x340217d8                Clock_Ip_apxCgmPcfs
 .rodata.Clock_Ip_apxXosc
                0x340217f0        0x4 tmp/obj/gcc/can_freertos_customization/Clock_Ip_Data.o
                0x340217f0                Clock_Ip_apxXosc
 .rodata.Clock_Ip_pxPll
                0x340217f4       0x10 tmp/obj/gcc/can_freertos_customization/Clock_Ip_Data.o
                0x340217f4                Clock_Ip_pxPll
 .rodata.Clock_Ip_apxDfs
                0x34021804        0x8 tmp/obj/gcc/can_freertos_customization/Clock_Ip_Data.o
                0x34021804                Clock_Ip_apxDfs
 .rodata.Clock_Ip_apxCmu
                0x3402180c       0x6c tmp/obj/gcc/can_freertos_customization/Clock_Ip_Data.o
                0x3402180c                Clock_Ip_apxCmu
 .rodata.Clock_Ip_aeCmuNames
                0x34021878       0x1b tmp/obj/gcc/can_freertos_customization/Clock_Ip_Data.o
                0x34021878                Clock_Ip_aeCmuNames
 *fill*         0x34021893        0x1 
 .rodata.Clock_Ip_axCmuInfo
                0x34021894      0x1a0 tmp/obj/gcc/can_freertos_customization/Clock_Ip_Data.o
                0x34021894                Clock_Ip_axCmuInfo
 .rodata.Clock_Ip_apxMcMeSetPartitions
                0x34021a34       0x10 tmp/obj/gcc/can_freertos_customization/Clock_Ip_Data.o
                0x34021a34                Clock_Ip_apxMcMeSetPartitions
 .rodata.Clock_Ip_apxMcMeGetPartitions
                0x34021a44       0x10 tmp/obj/gcc/can_freertos_customization/Clock_Ip_Data.o
                0x34021a44                Clock_Ip_apxMcMeGetPartitions
 .rodata.Clock_Ip_apxMcMeTriggerPartitions
                0x34021a54       0x10 tmp/obj/gcc/can_freertos_customization/Clock_Ip_Data.o
                0x34021a54                Clock_Ip_apxMcMeTriggerPartitions
 .rodata.Clock_Ip_aeSourceTypeClockName
                0x34021a64       0x4c tmp/obj/gcc/can_freertos_customization/Clock_Ip_Data.o
                0x34021a64                Clock_Ip_aeSourceTypeClockName
 .rodata.Clock_Ip_aeHwPllName
                0x34021ab0        0x4 tmp/obj/gcc/can_freertos_customization/Clock_Ip_Data.o
                0x34021ab0                Clock_Ip_aeHwPllName
 .rodata.Clock_Ip_aeHwDfsName
                0x34021ab4        0xc tmp/obj/gcc/can_freertos_customization/Clock_Ip_Data.o
                0x34021ab4                Clock_Ip_aeHwDfsName
 .rodata.Clock_Ip_axFeatureExtensions
                0x34021ac0      0x1e0 tmp/obj/gcc/can_freertos_customization/Clock_Ip_Data.o
                0x34021ac0                Clock_Ip_axFeatureExtensions
 .rodata.Clock_Ip_axGateInfo
                0x34021ca0       0x30 tmp/obj/gcc/can_freertos_customization/Clock_Ip_Data.o
                0x34021ca0                Clock_Ip_axGateInfo
 .rodata.Clock_Ip_axDividerCallbacks
                0x34021cd0       0x10 tmp/obj/gcc/can_freertos_customization/Clock_Ip_Divider.o
                0x34021cd0                Clock_Ip_axDividerCallbacks
 .rodata.Clock_Ip_axDividerTriggerCallbacks
                0x34021ce0        0x8 tmp/obj/gcc/can_freertos_customization/Clock_Ip_DividerTrigger.o
                0x34021ce0                Clock_Ip_axDividerTriggerCallbacks
 .rodata.Clock_Ip_axExtOscCallbacks
                0x34021ce8       0x28 tmp/obj/gcc/can_freertos_customization/Clock_Ip_ExtOsc.o
                0x34021ce8                Clock_Ip_axExtOscCallbacks
 .rodata.Clock_Ip_axFracDivCallbacks
                0x34021d10       0x18 tmp/obj/gcc/can_freertos_customization/Clock_Ip_FracDiv.o
                0x34021d10                Clock_Ip_axFracDivCallbacks
 .rodata.Clock_Ip_axGateCallbacks
                0x34021d28       0x10 tmp/obj/gcc/can_freertos_customization/Clock_Ip_Gate.o
                0x34021d28                Clock_Ip_axGateCallbacks
 .rodata.Clock_Ip_axIntOscCallbacks
                0x34021d38        0xc tmp/obj/gcc/can_freertos_customization/Clock_Ip_IntOsc.o
                0x34021d38                Clock_Ip_axIntOscCallbacks
 .rodata.Clock_Ip_axCmuCallbacks
                0x34021d44       0x30 tmp/obj/gcc/can_freertos_customization/Clock_Ip_Monitor.o
                0x34021d44                Clock_Ip_axCmuCallbacks
 .rodata.Clock_Ip_axPllCallbacks
                0x34021d74       0x3c tmp/obj/gcc/can_freertos_customization/Clock_Ip_Pll.o
                0x34021d74                Clock_Ip_axPllCallbacks
 .rodata.Clock_Ip_axPcfsCallbacks
                0x34021db0        0x8 tmp/obj/gcc/can_freertos_customization/Clock_Ip_ProgFreqSwitch.o
                0x34021db0                Clock_Ip_axPcfsCallbacks
 .rodata.AMax.1
                0x34021db8       0x18 tmp/obj/gcc/can_freertos_customization/Clock_Ip_ProgFreqSwitch.o
 .rodata.PcfsRate.0
                0x34021dd0       0x18 tmp/obj/gcc/can_freertos_customization/Clock_Ip_ProgFreqSwitch.o
 .rodata.Clock_Ip_axSelectorCallbacks
                0x34021de8       0x30 tmp/obj/gcc/can_freertos_customization/Clock_Ip_Selector.o
                0x34021de8                Clock_Ip_axSelectorCallbacks
 .rodata.Port_au32Siul2BaseAddr
                0x34021e18        0x8 tmp/obj/gcc/can_freertos_customization/Siul2_Port_Ip.o
                0x34021e18                Port_au32Siul2BaseAddr
 .rodata.Spi_Ip_apxBases
                0x34021e20       0x18 tmp/obj/gcc/can_freertos_customization/Spi_Ip.o
 .rodata.rbar   0x34021e38       0x2c tmp/obj/gcc/can_freertos_customization/system.o
 .rodata.rasr   0x34021e64       0x2c tmp/obj/gcc/can_freertos_customization/system.o
 .rodata.Can_Sema4_Ier.2
                0x34021e90        0x4 tmp/obj/gcc/can_freertos_customization/Can_Llce.o
 .rodata.Llce_Can_u32BlrinBaseAddress
                0x34021e94       0x40 tmp/obj/gcc/can_freertos_customization/Llce_InterfaceCanConfig.o
                0x34021e94                Llce_Can_u32BlrinBaseAddress
 .rodata.Llce_Can_u32RxoutBaseAddress
                0x34021ed4       0x58 tmp/obj/gcc/can_freertos_customization/Llce_InterfaceCanConfig.o
                0x34021ed4                Llce_Can_u32RxoutBaseAddress
 .rodata.Llce_Can_u32NotifFifo0BaseAddress
                0x34021f2c        0x8 tmp/obj/gcc/can_freertos_customization/Llce_InterfaceCanConfig.o
                0x34021f2c                Llce_Can_u32NotifFifo0BaseAddress
 .rodata.Llce_Can_u32NotifFifo1BaseAddress
                0x34021f34        0x8 tmp/obj/gcc/can_freertos_customization/Llce_InterfaceCanConfig.o
                0x34021f34                Llce_Can_u32NotifFifo1BaseAddress
 .rodata.Llce_Can_u32TxackBaseAddress
                0x34021f3c       0x58 tmp/obj/gcc/can_freertos_customization/Llce_InterfaceCanConfig.o
                0x34021f3c                Llce_Can_u32TxackBaseAddress
 .rodata.Llce_Can_u32BlroutBaseAddress
                0x34021f94       0x40 tmp/obj/gcc/can_freertos_customization/Llce_InterfaceCanConfig.o
                0x34021f94                Llce_Can_u32BlroutBaseAddress
 .rodata.Llce_Can_u32RxinBaseAddress
                0x34021fd4        0x8 tmp/obj/gcc/can_freertos_customization/Llce_InterfaceCanConfig.o
                0x34021fd4                Llce_Can_u32RxinBaseAddress
 .rodata.Llce_Can_u32CmdBaseAddress
                0x34021fdc        0x8 tmp/obj/gcc/can_freertos_customization/Llce_InterfaceCanConfig.o
                0x34021fdc                Llce_Can_u32CmdBaseAddress
 .rodata.Llce_Can_u32RxinLogBaseAddress
                0x34021fe4        0x4 tmp/obj/gcc/can_freertos_customization/Llce_InterfaceCanConfig.o
                0x34021fe4                Llce_Can_u32RxinLogBaseAddress
 .rodata.Llce_Can_u32RxoutLogBaseAddress
                0x34021fe8        0x4 tmp/obj/gcc/can_freertos_customization/Llce_InterfaceCanConfig.o
                0x34021fe8                Llce_Can_u32RxoutLogBaseAddress
 .rodata.Can_Sema4_Ier.0
                0x34021fec        0x4 tmp/obj/gcc/can_freertos_customization/Llce_InterfaceCanConfig.o
 .rodata.pcInterruptPriorityRegisters
                0x34021ff0        0x4 tmp/obj/gcc/can_freertos_customization/port_freertos.o
 .rodata.xHeapStructSize
                0x34021ff4        0x4 tmp/obj/gcc/can_freertos_customization/heap_4.o
 .rodata._global_impure_ptr
                0x34021ff8        0x4 c:/compiler/gcc-arm-none-eabi-10.3/bin/../lib/gcc/arm-none-eabi/10.3.1/../../../../arm-none-eabi/lib/thumb/v7e-m+fp/hard\libg_nano.a(lib_a-impure.o)
                0x34021ff8                _global_impure_ptr
 .rodata._svfprintf_r.str1.1
                0x34021ffc       0x11 c:/compiler/gcc-arm-none-eabi-10.3/bin/../lib/gcc/arm-none-eabi/10.3.1/../../../../arm-none-eabi/lib/thumb/v7e-m+fp/hard\libg_nano.a(lib_a-nano-svfprintf.o)
 .rodata._printf_i.str1.1
                0x3402200d       0x22 c:/compiler/gcc-arm-none-eabi-10.3/bin/../lib/gcc/arm-none-eabi/10.3.1/../../../../arm-none-eabi/lib/thumb/v7e-m+fp/hard\libg_nano.a(lib_a-nano-vfprintf_i.o)
                0x34022030                . = ALIGN (0x4)
 *fill*         0x3402202f        0x1 
 *(.mcal_const_cfg)
                0x34022030                . = ALIGN (0x4)
 *(.mcal_const)
                0x34022030                . = ALIGN (0x4)
                0x34022030                __init_table = .
 *(.init_table)
 .init_table    0x34022030       0x34 C:\cygwin64\tmp\ccklK50t.o
                0x34022064                . = ALIGN (0x4)
                0x34022064                __zero_table = .
 *(.zero_table)
 .zero_table    0x34022064       0x1c C:\cygwin64\tmp\ccklK50t.o
                0x34022080                . = ALIGN (0x4)
 *(.acfls_code_rom)
                0x34022080                . = ALIGN (0x4)
 *(.aceep_code_rom)
                0x34022080                . = ALIGN (0x4)
 *(.acmcu_code_rom)
                0x34022080                . = ALIGN (0x4)
 *(.ramcode)
                0x34022080                . = ALIGN (0x4)
 *(.data)
 .data          0x34022080        0x0 C:\cygwin64\tmp\ccMsMF9r.o
 .data          0x34022080        0x0 C:\cygwin64\tmp\ccklK50t.o
 .data          0x34022080        0x0 tmp/obj/gcc/can_freertos_customization/nvic.o
 .data          0x34022080        0x0 tmp/obj/gcc/can_freertos_customization/exceptions.o
 .data          0x34022080        0x0 tmp/obj/gcc/can_freertos_customization/Platform_Init.o
 .data          0x34022080        0x0 tmp/obj/gcc/can_freertos_customization/can_common.o
 .data          0x34022080        0x0 tmp/obj/gcc/can_freertos_customization/stubs.o
 .data          0x34022080        0x0 tmp/obj/gcc/can_freertos_customization/dte.o
 .data          0x34022080        0x0 tmp/obj/gcc/can_freertos_customization/frpe.o
 .data          0x34022080        0x0 tmp/obj/gcc/can_freertos_customization/ppe_rx.o
 .data          0x34022080        0x0 tmp/obj/gcc/can_freertos_customization/ppe_tx.o
 .data          0x34022080        0x0 tmp/obj/gcc/can_freertos_customization/Llce_Firmware_Load.o
 .data          0x34022080        0x0 tmp/obj/gcc/can_freertos_customization/main.o
 .data          0x34022080        0x0 tmp/obj/gcc/can_freertos_customization/TIC12400Drv.o
 .data          0x34022080        0x0 tmp/obj/gcc/can_freertos_customization/Can_43_LLCE_AFcfg.o
 .data          0x34022080        0x0 tmp/obj/gcc/can_freertos_customization/Can_43_LLCE_Cfg.o
 .data          0x34022080        0x0 tmp/obj/gcc/can_freertos_customization/Can_43_LLCE_VS_0_PBcfg.o
 .data          0x34022080        0x0 tmp/obj/gcc/can_freertos_customization/Clock_Ip_Cfg.o
 .data          0x34022080        0x0 tmp/obj/gcc/can_freertos_customization/Clock_Ip_VS_0_PBcfg.o
 .data          0x34022080        0x0 tmp/obj/gcc/can_freertos_customization/Dio_Cfg.o
 .data          0x34022080        0x0 tmp/obj/gcc/can_freertos_customization/IntCtrl_Ip_Cfg.o
 .data          0x34022080        0x0 tmp/obj/gcc/can_freertos_customization/Mcu_Cfg.o
 .data          0x34022080        0x0 tmp/obj/gcc/can_freertos_customization/Mcu_VS_0_PBcfg.o
 .data          0x34022080        0x0 tmp/obj/gcc/can_freertos_customization/OsIf_Cfg.o
 .data          0x34022080        0x0 tmp/obj/gcc/can_freertos_customization/Platform_Cfg.o
 .data          0x34022080        0x0 tmp/obj/gcc/can_freertos_customization/Platform_Ipw_Cfg.o
 .data          0x34022080        0x0 tmp/obj/gcc/can_freertos_customization/Port_Cfg.o
 .data          0x34022080        0x0 tmp/obj/gcc/can_freertos_customization/Port_VS_0_PBcfg.o
 .data          0x34022080        0x0 tmp/obj/gcc/can_freertos_customization/Power_Ip_Cfg.o
 .data          0x34022080        0x0 tmp/obj/gcc/can_freertos_customization/Power_Ip_VS_0_PBcfg.o
 .data          0x34022080        0x0 tmp/obj/gcc/can_freertos_customization/Ram_Ip_Cfg.o
 .data          0x34022080        0x0 tmp/obj/gcc/can_freertos_customization/Ram_Ip_VS_0_PBcfg.o
 .data          0x34022080        0x0 tmp/obj/gcc/can_freertos_customization/Siul2_Port_Ip_VS_0_PBcfg.o
 .data          0x34022080        0x0 tmp/obj/gcc/can_freertos_customization/Spi_Ip_VS_0_PBcfg.o
 .data          0x34022080        0x0 tmp/obj/gcc/can_freertos_customization/Spi_Ipw_VS_0_PBcfg.o
 .data          0x34022080        0x0 tmp/obj/gcc/can_freertos_customization/Spi_VS_0_PBcfg.o
 .data          0x34022080        0x0 tmp/obj/gcc/can_freertos_customization/OsIf_Interrupts.o
 .data          0x34022080        0x0 tmp/obj/gcc/can_freertos_customization/OsIf_Timer.o
 .data          0x34022080        0x0 tmp/obj/gcc/can_freertos_customization/OsIf_Timer_System.o
 .data          0x34022080        0x0 tmp/obj/gcc/can_freertos_customization/OsIf_Timer_System_Internal_GenericTimer.o
 .data          0x34022080        0x0 tmp/obj/gcc/can_freertos_customization/OsIf_Timer_System_Internal_Systick.o
 .data          0x34022080        0x0 tmp/obj/gcc/can_freertos_customization/Det.o
 .data          0x34022080        0x0 tmp/obj/gcc/can_freertos_customization/Det_stub.o
 .data          0x34022080        0x0 tmp/obj/gcc/can_freertos_customization/Dem.o
 .data          0x34022080        0x0 tmp/obj/gcc/can_freertos_customization/Dem_stub.o
 .data          0x34022080        0x0 tmp/obj/gcc/can_freertos_customization/EcuM.o
 .data          0x34022080        0x0 tmp/obj/gcc/can_freertos_customization/Clock_Ip.o
 .data          0x34022080        0x0 tmp/obj/gcc/can_freertos_customization/Clock_Ip_Data.o
 .data          0x34022080        0x0 tmp/obj/gcc/can_freertos_customization/Clock_Ip_Data1.o
 .data          0x34022080        0x0 tmp/obj/gcc/can_freertos_customization/Clock_Ip_Data2.o
 .data          0x34022080        0x0 tmp/obj/gcc/can_freertos_customization/Clock_Ip_Divider.o
 .data          0x34022080        0x0 tmp/obj/gcc/can_freertos_customization/Clock_Ip_DividerTrigger.o
 .data          0x34022080        0x0 tmp/obj/gcc/can_freertos_customization/Clock_Ip_ExtOsc.o
 .data          0x34022080        0x0 tmp/obj/gcc/can_freertos_customization/Clock_Ip_FracDiv.o
 .data          0x34022080        0x0 tmp/obj/gcc/can_freertos_customization/Clock_Ip_Frequency.o
 .data          0x34022080        0x0 tmp/obj/gcc/can_freertos_customization/Clock_Ip_Frequency1.o
 .data          0x34022080        0x0 tmp/obj/gcc/can_freertos_customization/Clock_Ip_Frequency2.o
 .data          0x34022080        0x0 tmp/obj/gcc/can_freertos_customization/Clock_Ip_Gate.o
 .data          0x34022080        0x0 tmp/obj/gcc/can_freertos_customization/Clock_Ip_IntOsc.o
 .data          0x34022080        0x0 tmp/obj/gcc/can_freertos_customization/Clock_Ip_Irq.o
 .data          0x34022080        0x0 tmp/obj/gcc/can_freertos_customization/Clock_Ip_Monitor.o
 .data          0x34022080        0x0 tmp/obj/gcc/can_freertos_customization/Clock_Ip_Pll.o
 .data          0x34022080        0x0 tmp/obj/gcc/can_freertos_customization/Clock_Ip_ProgFreqSwitch.o
 .data          0x34022080        0x0 tmp/obj/gcc/can_freertos_customization/Clock_Ip_Selector.o
 .data          0x34022080        0x0 tmp/obj/gcc/can_freertos_customization/Clock_Ip_Specific.o
 .data          0x34022080        0x0 tmp/obj/gcc/can_freertos_customization/Clock_Ip_Specific1.o
 .data          0x34022080        0x0 tmp/obj/gcc/can_freertos_customization/Clock_Ip_Specific2.o
 .data          0x34022080        0x0 tmp/obj/gcc/can_freertos_customization/Mcu.o
 .data          0x34022080        0x0 tmp/obj/gcc/can_freertos_customization/Mcu_Dem_Wrapper.o
 .data          0x34022080        0x0 tmp/obj/gcc/can_freertos_customization/Mcu_Ipw.o
 .data          0x34022080        0x0 tmp/obj/gcc/can_freertos_customization/Power_Ip.o
 .data          0x34022080        0x0 tmp/obj/gcc/can_freertos_customization/Power_Ip_CortexA.o
 .data          0x34022080        0x0 tmp/obj/gcc/can_freertos_customization/Power_Ip_CortexM7.o
 .data          0x34022080        0x0 tmp/obj/gcc/can_freertos_customization/Power_Ip_MC_ME.o
 .data          0x34022080        0x0 tmp/obj/gcc/can_freertos_customization/Power_Ip_MC_RGM.o
 .data          0x34022080        0x0 tmp/obj/gcc/can_freertos_customization/Power_Ip_MC_RGM_Irq.o
 .data          0x34022080        0x0 tmp/obj/gcc/can_freertos_customization/Power_Ip_MSCM.o
 .data          0x34022080        0x0 tmp/obj/gcc/can_freertos_customization/Power_Ip_PMC.o
 .data          0x34022080        0x0 tmp/obj/gcc/can_freertos_customization/Power_Ip_Private.o
 .data          0x34022080        0x0 tmp/obj/gcc/can_freertos_customization/Ram_Ip.o
 .data          0x34022080        0x0 tmp/obj/gcc/can_freertos_customization/Port.o
 .data          0x34022080        0x0 tmp/obj/gcc/can_freertos_customization/Port_Ipw.o
 .data          0x34022080        0x0 tmp/obj/gcc/can_freertos_customization/Siul2_Port_Ip.o
 .data          0x34022080        0x0 tmp/obj/gcc/can_freertos_customization/Dio.o
 .data          0x34022080        0x0 tmp/obj/gcc/can_freertos_customization/Dio_Ipw.o
 .data          0x34022080        0x0 tmp/obj/gcc/can_freertos_customization/Siul2_Dio_Ip.o
 .data          0x34022080        0x0 tmp/obj/gcc/can_freertos_customization/Spi.o
 .data          0x34022080        0x0 tmp/obj/gcc/can_freertos_customization/Spi_Ip.o
 .data          0x34022080        0x0 tmp/obj/gcc/can_freertos_customization/Spi_Ip_Irq.o
 .data          0x34022080        0x0 tmp/obj/gcc/can_freertos_customization/Spi_Ipw.o
 .data          0x34022080        0x0 tmp/obj/gcc/can_freertos_customization/SchM_Mcu.o
 .data          0x34022080        0x0 tmp/obj/gcc/can_freertos_customization/SchM_Port.o
 .data          0x34022080        0x0 tmp/obj/gcc/can_freertos_customization/SchM_Dio.o
 .data          0x34022080        0x0 tmp/obj/gcc/can_freertos_customization/SchM_Spi.o
 .data          0x34022080        0x0 tmp/obj/gcc/can_freertos_customization/system.o
 .data          0x34022080        0x0 tmp/obj/gcc/can_freertos_customization/IntCtrl_Ip.o
 .data          0x34022080        0x0 tmp/obj/gcc/can_freertos_customization/Platform.o
 .data          0x34022080        0x0 tmp/obj/gcc/can_freertos_customization/Platform_Ipw.o
 .data          0x34022080        0x0 tmp/obj/gcc/can_freertos_customization/System_Ip.o
 .data          0x34022080        0x0 tmp/obj/gcc/can_freertos_customization/SchM_Can_43_LLCE.o
 .data          0x34022080        0x0 tmp/obj/gcc/can_freertos_customization/Can_43_LLCE.o
 .data          0x34022080        0x0 tmp/obj/gcc/can_freertos_customization/Can_43_LLCE_IPW.o
 .data          0x34022080        0x0 tmp/obj/gcc/can_freertos_customization/Can_43_LLCE_Irq.o
 .data          0x34022080        0x0 tmp/obj/gcc/can_freertos_customization/Can_Callback.o
 .data          0x34022080        0x0 tmp/obj/gcc/can_freertos_customization/Can_Llce.o
 .data          0x34022080        0x0 tmp/obj/gcc/can_freertos_customization/Llce_InterfaceCanConfig.o
 .data          0x34022080        0x0 tmp/obj/gcc/can_freertos_customization/Llce_SwFifo.o
 .data          0x34022080        0x0 tmp/obj/gcc/can_freertos_customization/croutine.o
 .data          0x34022080        0x0 tmp/obj/gcc/can_freertos_customization/event_groups.o
 .data          0x34022080        0x0 tmp/obj/gcc/can_freertos_customization/list.o
 .data          0x34022080        0x0 tmp/obj/gcc/can_freertos_customization/queue.o
 .data          0x34022080        0x0 tmp/obj/gcc/can_freertos_customization/stream_buffer.o
 .data          0x34022080        0x0 tmp/obj/gcc/can_freertos_customization/tasks.o
 .data          0x34022080        0x0 tmp/obj/gcc/can_freertos_customization/timers.o
 .data          0x34022080        0x0 tmp/obj/gcc/can_freertos_customization/port_freertos.o
 .data          0x34022080        0x0 tmp/obj/gcc/can_freertos_customization/heap_4.o
 .data          0x34022080        0x0 C:\cygwin64\tmp\ccS5tM1S.o
 .data          0x34022080        0x0 c:/compiler/gcc-arm-none-eabi-10.3/bin/../lib/gcc/arm-none-eabi/10.3.1/thumb/v7e-m+fp/hard\libgcc.a(_aeabi_uldivmod.o)
 .data          0x34022080        0x0 c:/compiler/gcc-arm-none-eabi-10.3/bin/../lib/gcc/arm-none-eabi/10.3.1/thumb/v7e-m+fp/hard\libgcc.a(_udivmoddi4.o)
 .data          0x34022080        0x0 c:/compiler/gcc-arm-none-eabi-10.3/bin/../lib/gcc/arm-none-eabi/10.3.1/thumb/v7e-m+fp/hard\libgcc.a(_dvmd_tls.o)
 .data          0x34022080        0x0 c:/compiler/gcc-arm-none-eabi-10.3/bin/../lib/gcc/arm-none-eabi/10.3.1/../../../../arm-none-eabi/lib/thumb/v7e-m+fp/hard\libg_nano.a(lib_a-memcpy-stub.o)
 .data          0x34022080        0x0 c:/compiler/gcc-arm-none-eabi-10.3/bin/../lib/gcc/arm-none-eabi/10.3.1/../../../../arm-none-eabi/lib/thumb/v7e-m+fp/hard\libg_nano.a(lib_a-memset.o)
 .data          0x34022080        0x0 c:/compiler/gcc-arm-none-eabi-10.3/bin/../lib/gcc/arm-none-eabi/10.3.1/../../../../arm-none-eabi/lib/thumb/v7e-m+fp/hard\libg_nano.a(lib_a-sprintf.o)
 .data          0x34022080        0x0 c:/compiler/gcc-arm-none-eabi-10.3/bin/../lib/gcc/arm-none-eabi/10.3.1/../../../../arm-none-eabi/lib/thumb/v7e-m+fp/hard\libg_nano.a(lib_a-strcpy.o)
 .data          0x34022080        0x0 c:/compiler/gcc-arm-none-eabi-10.3/bin/../lib/gcc/arm-none-eabi/10.3.1/../../../../arm-none-eabi/lib/thumb/v7e-m+fp/hard\libg_nano.a(lib_a-strlen.o)
 .data          0x34022080        0x0 c:/compiler/gcc-arm-none-eabi-10.3/bin/../lib/gcc/arm-none-eabi/10.3.1/../../../../arm-none-eabi/lib/thumb/v7e-m+fp/hard\libg_nano.a(lib_a-impure.o)
 .data          0x34022080        0x0 c:/compiler/gcc-arm-none-eabi-10.3/bin/../lib/gcc/arm-none-eabi/10.3.1/../../../../arm-none-eabi/lib/thumb/v7e-m+fp/hard\libg_nano.a(lib_a-nano-svfprintf.o)
 .data          0x34022080        0x0 c:/compiler/gcc-arm-none-eabi-10.3/bin/../lib/gcc/arm-none-eabi/10.3.1/../../../../arm-none-eabi/lib/thumb/v7e-m+fp/hard\libg_nano.a(lib_a-nano-vfprintf_i.o)
 .data          0x34022080        0x0 c:/compiler/gcc-arm-none-eabi-10.3/bin/../lib/gcc/arm-none-eabi/10.3.1/../../../../arm-none-eabi/lib/thumb/v7e-m+fp/hard\libg_nano.a(lib_a-memchr.o)
 .data          0x34022080        0x0 c:/compiler/gcc-arm-none-eabi-10.3/bin/../lib/gcc/arm-none-eabi/10.3.1/../../../../arm-none-eabi/lib/thumb/v7e-m+fp/hard\libg_nano.a(lib_a-memmove.o)
 .data          0x34022080        0x0 c:/compiler/gcc-arm-none-eabi-10.3/bin/../lib/gcc/arm-none-eabi/10.3.1/../../../../arm-none-eabi/lib/thumb/v7e-m+fp/hard\libg_nano.a(lib_a-nano-freer.o)
 .data          0x34022080        0x0 c:/compiler/gcc-arm-none-eabi-10.3/bin/../lib/gcc/arm-none-eabi/10.3.1/../../../../arm-none-eabi/lib/thumb/v7e-m+fp/hard\libg_nano.a(lib_a-nano-mallocr.o)
 .data          0x34022080        0x0 c:/compiler/gcc-arm-none-eabi-10.3/bin/../lib/gcc/arm-none-eabi/10.3.1/../../../../arm-none-eabi/lib/thumb/v7e-m+fp/hard\libg_nano.a(lib_a-nano-reallocr.o)
 .data          0x34022080        0x0 c:/compiler/gcc-arm-none-eabi-10.3/bin/../lib/gcc/arm-none-eabi/10.3.1/../../../../arm-none-eabi/lib/thumb/v7e-m+fp/hard\libg_nano.a(lib_a-sbrkr.o)
 .data          0x34022080        0x0 c:/compiler/gcc-arm-none-eabi-10.3/bin/../lib/gcc/arm-none-eabi/10.3.1/../../../../arm-none-eabi/lib/thumb/v7e-m+fp/hard\libg_nano.a(lib_a-mlock.o)
 .data          0x34022080        0x0 c:/compiler/gcc-arm-none-eabi-10.3/bin/../lib/gcc/arm-none-eabi/10.3.1/../../../../arm-none-eabi/lib/thumb/v7e-m+fp/hard\libg_nano.a(lib_a-nano-msizer.o)
 .data          0x34022080        0x0 c:/compiler/gcc-arm-none-eabi-10.3/bin/../lib/gcc/arm-none-eabi/10.3.1/../../../../arm-none-eabi/lib/thumb/v7e-m+fp/hard\libg_nano.a(lib_a-reent.o)
 .data          0x34022080        0x0 c:/compiler/gcc-arm-none-eabi-10.3/bin/../lib/gcc/arm-none-eabi/10.3.1/../../../../arm-none-eabi/lib/thumb/v7e-m+fp/hard\libg_nano.a(lib_a-lock.o)
 .data          0x34022080        0x0 c:/compiler/gcc-arm-none-eabi-10.3/bin/../lib/gcc/arm-none-eabi/10.3.1/../../../../arm-none-eabi/lib/thumb/v7e-m+fp/hard\libnosys.a(sbrk.o)
 *(.data*)
 .data.dte_bin  0x34022080     0x161c tmp/obj/gcc/can_freertos_customization/dte.o
                0x34022080                dte_bin
 .data.dte_bin_len
                0x3402369c        0x4 tmp/obj/gcc/can_freertos_customization/dte.o
                0x3402369c                dte_bin_len
 .data.frpe_bin
                0x340236a0     0x3ce8 tmp/obj/gcc/can_freertos_customization/frpe.o
                0x340236a0                frpe_bin
 .data.frpe_bin_len
                0x34027388        0x4 tmp/obj/gcc/can_freertos_customization/frpe.o
                0x34027388                frpe_bin_len
 .data.ppe_rx_bin
                0x3402738c     0x7380 tmp/obj/gcc/can_freertos_customization/ppe_rx.o
                0x3402738c                ppe_rx_bin
 .data.ppe_rx_bin_len
                0x3402e70c        0x4 tmp/obj/gcc/can_freertos_customization/ppe_rx.o
                0x3402e70c                ppe_rx_bin_len
 .data.ppe_tx_bin
                0x3402e710     0x6d08 tmp/obj/gcc/can_freertos_customization/ppe_tx.o
                0x3402e710                ppe_tx_bin
 .data.ppe_tx_bin_len
                0x34035418        0x4 tmp/obj/gcc/can_freertos_customization/ppe_tx.o
                0x34035418                ppe_tx_bin_len
 .data.zongtest4_freertos
                0x3403541c        0x2 tmp/obj/gcc/can_freertos_customization/main.o
                0x3403541c                zongtest4_freertos
 *fill*         0x3403541e        0x2 
 .data.Llce_Rx_Filters_Ctrl0_PB
                0x34035420       0x14 tmp/obj/gcc/can_freertos_customization/Can_43_LLCE_VS_0_PBcfg.o
 .data.Llce_Rx_Filters_Ctrl1_PB
                0x34035434       0x14 tmp/obj/gcc/can_freertos_customization/Can_43_LLCE_VS_0_PBcfg.o
 .data.Llce_Rx_Filters_Ctrl2_PB
                0x34035448       0x14 tmp/obj/gcc/can_freertos_customization/Can_43_LLCE_VS_0_PBcfg.o
 .data.Llce_Rx_Filters_Ctrl3_PB
                0x3403545c       0x14 tmp/obj/gcc/can_freertos_customization/Can_43_LLCE_VS_0_PBcfg.o
 .data.Llce_Rx_Filters_Ctrl4_PB
                0x34035470       0x14 tmp/obj/gcc/can_freertos_customization/Can_43_LLCE_VS_0_PBcfg.o
 .data.Llce_Rx_Filters_Ctrl5_PB
                0x34035484       0x14 tmp/obj/gcc/can_freertos_customization/Can_43_LLCE_VS_0_PBcfg.o
 .data.Llce_Rx_Filters_Ctrl6_PB
                0x34035498       0x14 tmp/obj/gcc/can_freertos_customization/Can_43_LLCE_VS_0_PBcfg.o
 .data.Llce_Rx_Filters_Ctrl7_PB
                0x340354ac       0x14 tmp/obj/gcc/can_freertos_customization/Can_43_LLCE_VS_0_PBcfg.o
 .data.Llce_Rx_Filters_Ctrl9_PB
                0x340354c0       0x14 tmp/obj/gcc/can_freertos_customization/Can_43_LLCE_VS_0_PBcfg.o
 .data.Llce_Rx_Filters_Ctrl10_PB
                0x340354d4       0x14 tmp/obj/gcc/can_freertos_customization/Can_43_LLCE_VS_0_PBcfg.o
 .data.Llce_Rx_Filters_Ctrl11_PB
                0x340354e8       0x14 tmp/obj/gcc/can_freertos_customization/Can_43_LLCE_VS_0_PBcfg.o
 .data.Llce_Rx_Filters_Ctrl12_PB
                0x340354fc       0x14 tmp/obj/gcc/can_freertos_customization/Can_43_LLCE_VS_0_PBcfg.o
 .data.Llce_Rx_Filters_Ctrl13_PB
                0x34035510       0x14 tmp/obj/gcc/can_freertos_customization/Can_43_LLCE_VS_0_PBcfg.o
 .data.Llce_Rx_Filters_Ctrl14_PB
                0x34035524       0x14 tmp/obj/gcc/can_freertos_customization/Can_43_LLCE_VS_0_PBcfg.o
 .data.Llce_Rx_Filters_Ctrl15_PB
                0x34035538       0x14 tmp/obj/gcc/can_freertos_customization/Can_43_LLCE_VS_0_PBcfg.o
 .data.Llce_Rx_Filters_List
                0x3403554c       0x40 tmp/obj/gcc/can_freertos_customization/Can_43_LLCE_VS_0_PBcfg.o
 .data.Llce_RxAf_Filters_Ctrl0_PB
                0x3403558c       0x38 tmp/obj/gcc/can_freertos_customization/Can_43_LLCE_VS_0_PBcfg.o
 .data.Llce_RxAf_Filters_Ctrl1_PB
                0x340355c4       0x1c tmp/obj/gcc/can_freertos_customization/Can_43_LLCE_VS_0_PBcfg.o
 .data.Llce_RxAf_Filters_Ctrl2_PB
                0x340355e0       0x1c tmp/obj/gcc/can_freertos_customization/Can_43_LLCE_VS_0_PBcfg.o
 .data.Llce_RxAf_Filters_Ctrl3_PB
                0x340355fc       0x1c tmp/obj/gcc/can_freertos_customization/Can_43_LLCE_VS_0_PBcfg.o
 .data.Llce_RxAf_Filters_Ctrl4_PB
                0x34035618       0x1c tmp/obj/gcc/can_freertos_customization/Can_43_LLCE_VS_0_PBcfg.o
 .data.Llce_RxAf_Filters_Ctrl5_PB
                0x34035634       0x1c tmp/obj/gcc/can_freertos_customization/Can_43_LLCE_VS_0_PBcfg.o
 .data.Llce_RxAf_Filters_Ctrl6_PB
                0x34035650       0x1c tmp/obj/gcc/can_freertos_customization/Can_43_LLCE_VS_0_PBcfg.o
 .data.Llce_RxAf_Filters_Ctrl7_PB
                0x3403566c       0x1c tmp/obj/gcc/can_freertos_customization/Can_43_LLCE_VS_0_PBcfg.o
 .data.Llce_RxAf_Filters_Ctrl8_PB
                0x34035688       0x38 tmp/obj/gcc/can_freertos_customization/Can_43_LLCE_VS_0_PBcfg.o
 .data.Llce_RxAf_Filters_Ctrl9_PB
                0x340356c0       0x1c tmp/obj/gcc/can_freertos_customization/Can_43_LLCE_VS_0_PBcfg.o
 .data.Llce_RxAf_Filters_Ctrl10_PB
                0x340356dc       0x1c tmp/obj/gcc/can_freertos_customization/Can_43_LLCE_VS_0_PBcfg.o
 .data.Llce_RxAf_Filters_Ctrl11_PB
                0x340356f8       0x1c tmp/obj/gcc/can_freertos_customization/Can_43_LLCE_VS_0_PBcfg.o
 .data.Llce_RxAf_Filters_Ctrl12_PB
                0x34035714       0x1c tmp/obj/gcc/can_freertos_customization/Can_43_LLCE_VS_0_PBcfg.o
 .data.Llce_RxAf_Filters_Ctrl13_PB
                0x34035730       0x1c tmp/obj/gcc/can_freertos_customization/Can_43_LLCE_VS_0_PBcfg.o
 .data.Llce_RxAf_Filters_Ctrl14_PB
                0x3403574c       0x1c tmp/obj/gcc/can_freertos_customization/Can_43_LLCE_VS_0_PBcfg.o
 .data.Llce_RxAf_Filters_Ctrl15_PB
                0x34035768       0x1c tmp/obj/gcc/can_freertos_customization/Can_43_LLCE_VS_0_PBcfg.o
 .data.Llce_RxAf_Filters_List
                0x34035784       0x40 tmp/obj/gcc/can_freertos_customization/Can_43_LLCE_VS_0_PBcfg.o
 .data.Spi_Ip_DeviceParamsCfg_VS_0
                0x340357c4        0x8 tmp/obj/gcc/can_freertos_customization/Spi_Ip_VS_0_PBcfg.o
 .data.Spi_Buffer_VS_0_SpiChannel_0_TIC12400
                0x340357cc        0xc tmp/obj/gcc/can_freertos_customization/Spi_VS_0_PBcfg.o
 .data.Clock_Ip_pfkNotificationsCallback
                0x340357d8        0x4 tmp/obj/gcc/can_freertos_customization/Clock_Ip.o
 .data.Power_Ip_pfReportErrorsCallback
                0x340357dc        0x4 tmp/obj/gcc/can_freertos_customization/Power_Ip.o
                0x340357dc                Power_Ip_pfReportErrorsCallback
 .data.Power_Ip_pxMC_ME
                0x340357e0        0x4 tmp/obj/gcc/can_freertos_customization/Power_Ip_MC_ME.o
 .data.Power_Ip_pxMC_RGM
                0x340357e4        0x4 tmp/obj/gcc/can_freertos_customization/Power_Ip_MC_RGM.o
 .data.Power_Ip_pxRdc
                0x340357e8        0x4 tmp/obj/gcc/can_freertos_customization/Power_Ip_MC_RGM.o
 .data.Siul2_Dio_Ip_au32BaseAdresses
                0x340357ec        0x8 tmp/obj/gcc/can_freertos_customization/Siul2_Dio_Ip.o
                0x340357ec                Siul2_Dio_Ip_au32BaseAdresses
 .data.uxTopUsedPriority
                0x340357f4        0x4 tmp/obj/gcc/can_freertos_customization/tasks.o
                0x340357f4                uxTopUsedPriority
 .data.uxCriticalNesting
                0x340357f8        0x4 tmp/obj/gcc/can_freertos_customization/port_freertos.o
 .data._impure_ptr
                0x340357fc        0x4 c:/compiler/gcc-arm-none-eabi-10.3/bin/../lib/gcc/arm-none-eabi/10.3.1/../../../../arm-none-eabi/lib/thumb/v7e-m+fp/hard\libg_nano.a(lib_a-impure.o)
                0x340357fc                _impure_ptr
 .data.impure_data
                0x34035800       0x60 c:/compiler/gcc-arm-none-eabi-10.3/bin/../lib/gcc/arm-none-eabi/10.3.1/../../../../arm-none-eabi/lib/thumb/v7e-m+fp/hard\libg_nano.a(lib_a-impure.o)
                0x34035860                . = ALIGN (0x4)
 *(.mcal_data)
                0x34035860                . = ALIGN (0x10)
                0x34035860                __sram_bss_start = .
 *(.bss)
 .bss           0x34035860        0x0 C:\cygwin64\tmp\ccMsMF9r.o
 .bss           0x34035860        0x0 C:\cygwin64\tmp\ccklK50t.o
 .bss           0x34035860        0x0 tmp/obj/gcc/can_freertos_customization/nvic.o
 .bss           0x34035860        0x0 tmp/obj/gcc/can_freertos_customization/exceptions.o
 .bss           0x34035860        0x0 tmp/obj/gcc/can_freertos_customization/Platform_Init.o
 .bss           0x34035860        0x0 tmp/obj/gcc/can_freertos_customization/can_common.o
 .bss           0x34035860        0x0 tmp/obj/gcc/can_freertos_customization/stubs.o
 .bss           0x34035860        0x0 tmp/obj/gcc/can_freertos_customization/dte.o
 .bss           0x34035860        0x0 tmp/obj/gcc/can_freertos_customization/frpe.o
 .bss           0x34035860        0x0 tmp/obj/gcc/can_freertos_customization/ppe_rx.o
 .bss           0x34035860        0x0 tmp/obj/gcc/can_freertos_customization/ppe_tx.o
 .bss           0x34035860        0x0 tmp/obj/gcc/can_freertos_customization/Llce_Firmware_Load.o
 .bss           0x34035860        0x0 tmp/obj/gcc/can_freertos_customization/main.o
 .bss           0x34035860        0x0 tmp/obj/gcc/can_freertos_customization/TIC12400Drv.o
 .bss           0x34035860        0x0 tmp/obj/gcc/can_freertos_customization/Can_43_LLCE_AFcfg.o
 .bss           0x34035860        0x0 tmp/obj/gcc/can_freertos_customization/Can_43_LLCE_Cfg.o
 .bss           0x34035860        0x0 tmp/obj/gcc/can_freertos_customization/Can_43_LLCE_VS_0_PBcfg.o
 .bss           0x34035860        0x0 tmp/obj/gcc/can_freertos_customization/Clock_Ip_Cfg.o
 .bss           0x34035860        0x0 tmp/obj/gcc/can_freertos_customization/Clock_Ip_VS_0_PBcfg.o
 .bss           0x34035860        0x0 tmp/obj/gcc/can_freertos_customization/Dio_Cfg.o
 .bss           0x34035860        0x0 tmp/obj/gcc/can_freertos_customization/IntCtrl_Ip_Cfg.o
 .bss           0x34035860        0x0 tmp/obj/gcc/can_freertos_customization/Mcu_Cfg.o
 .bss           0x34035860        0x0 tmp/obj/gcc/can_freertos_customization/Mcu_VS_0_PBcfg.o
 .bss           0x34035860        0x0 tmp/obj/gcc/can_freertos_customization/OsIf_Cfg.o
 .bss           0x34035860        0x0 tmp/obj/gcc/can_freertos_customization/Platform_Cfg.o
 .bss           0x34035860        0x0 tmp/obj/gcc/can_freertos_customization/Platform_Ipw_Cfg.o
 .bss           0x34035860        0x0 tmp/obj/gcc/can_freertos_customization/Port_Cfg.o
 .bss           0x34035860        0x0 tmp/obj/gcc/can_freertos_customization/Port_VS_0_PBcfg.o
 .bss           0x34035860        0x0 tmp/obj/gcc/can_freertos_customization/Power_Ip_Cfg.o
 .bss           0x34035860        0x0 tmp/obj/gcc/can_freertos_customization/Power_Ip_VS_0_PBcfg.o
 .bss           0x34035860        0x0 tmp/obj/gcc/can_freertos_customization/Ram_Ip_Cfg.o
 .bss           0x34035860        0x0 tmp/obj/gcc/can_freertos_customization/Ram_Ip_VS_0_PBcfg.o
 .bss           0x34035860        0x0 tmp/obj/gcc/can_freertos_customization/Siul2_Port_Ip_VS_0_PBcfg.o
 .bss           0x34035860        0x0 tmp/obj/gcc/can_freertos_customization/Spi_Ip_VS_0_PBcfg.o
 .bss           0x34035860        0x0 tmp/obj/gcc/can_freertos_customization/Spi_Ipw_VS_0_PBcfg.o
 .bss           0x34035860        0x0 tmp/obj/gcc/can_freertos_customization/Spi_VS_0_PBcfg.o
 .bss           0x34035860        0x0 tmp/obj/gcc/can_freertos_customization/OsIf_Interrupts.o
 .bss           0x34035860        0x0 tmp/obj/gcc/can_freertos_customization/OsIf_Timer.o
 .bss           0x34035860        0x0 tmp/obj/gcc/can_freertos_customization/OsIf_Timer_System.o
 .bss           0x34035860        0x0 tmp/obj/gcc/can_freertos_customization/OsIf_Timer_System_Internal_GenericTimer.o
 .bss           0x34035860        0x0 tmp/obj/gcc/can_freertos_customization/OsIf_Timer_System_Internal_Systick.o
 .bss           0x34035860        0x0 tmp/obj/gcc/can_freertos_customization/Det.o
 .bss           0x34035860        0x0 tmp/obj/gcc/can_freertos_customization/Det_stub.o
 .bss           0x34035860        0x0 tmp/obj/gcc/can_freertos_customization/Dem.o
 .bss           0x34035860        0x0 tmp/obj/gcc/can_freertos_customization/Dem_stub.o
 .bss           0x34035860        0x0 tmp/obj/gcc/can_freertos_customization/EcuM.o
 .bss           0x34035860        0x0 tmp/obj/gcc/can_freertos_customization/Clock_Ip.o
 .bss           0x34035860        0x0 tmp/obj/gcc/can_freertos_customization/Clock_Ip_Data.o
 .bss           0x34035860        0x0 tmp/obj/gcc/can_freertos_customization/Clock_Ip_Data1.o
 .bss           0x34035860        0x0 tmp/obj/gcc/can_freertos_customization/Clock_Ip_Data2.o
 .bss           0x34035860        0x0 tmp/obj/gcc/can_freertos_customization/Clock_Ip_Divider.o
 .bss           0x34035860        0x0 tmp/obj/gcc/can_freertos_customization/Clock_Ip_DividerTrigger.o
 .bss           0x34035860        0x0 tmp/obj/gcc/can_freertos_customization/Clock_Ip_ExtOsc.o
 .bss           0x34035860        0x0 tmp/obj/gcc/can_freertos_customization/Clock_Ip_FracDiv.o
 .bss           0x34035860        0x0 tmp/obj/gcc/can_freertos_customization/Clock_Ip_Frequency.o
 .bss           0x34035860        0x0 tmp/obj/gcc/can_freertos_customization/Clock_Ip_Frequency1.o
 .bss           0x34035860        0x0 tmp/obj/gcc/can_freertos_customization/Clock_Ip_Frequency2.o
 .bss           0x34035860        0x0 tmp/obj/gcc/can_freertos_customization/Clock_Ip_Gate.o
 .bss           0x34035860        0x0 tmp/obj/gcc/can_freertos_customization/Clock_Ip_IntOsc.o
 .bss           0x34035860        0x0 tmp/obj/gcc/can_freertos_customization/Clock_Ip_Irq.o
 .bss           0x34035860        0x0 tmp/obj/gcc/can_freertos_customization/Clock_Ip_Monitor.o
 .bss           0x34035860        0x0 tmp/obj/gcc/can_freertos_customization/Clock_Ip_Pll.o
 .bss           0x34035860        0x0 tmp/obj/gcc/can_freertos_customization/Clock_Ip_ProgFreqSwitch.o
 .bss           0x34035860        0x0 tmp/obj/gcc/can_freertos_customization/Clock_Ip_Selector.o
 .bss           0x34035860        0x0 tmp/obj/gcc/can_freertos_customization/Clock_Ip_Specific.o
 .bss           0x34035860        0x0 tmp/obj/gcc/can_freertos_customization/Clock_Ip_Specific1.o
 .bss           0x34035860        0x0 tmp/obj/gcc/can_freertos_customization/Clock_Ip_Specific2.o
 .bss           0x34035860        0x0 tmp/obj/gcc/can_freertos_customization/Mcu.o
 .bss           0x34035860        0x0 tmp/obj/gcc/can_freertos_customization/Mcu_Dem_Wrapper.o
 .bss           0x34035860        0x0 tmp/obj/gcc/can_freertos_customization/Mcu_Ipw.o
 .bss           0x34035860        0x0 tmp/obj/gcc/can_freertos_customization/Power_Ip.o
 .bss           0x34035860        0x0 tmp/obj/gcc/can_freertos_customization/Power_Ip_CortexA.o
 .bss           0x34035860        0x0 tmp/obj/gcc/can_freertos_customization/Power_Ip_CortexM7.o
 .bss           0x34035860        0x0 tmp/obj/gcc/can_freertos_customization/Power_Ip_MC_ME.o
 .bss           0x34035860        0x0 tmp/obj/gcc/can_freertos_customization/Power_Ip_MC_RGM.o
 .bss           0x34035860        0x0 tmp/obj/gcc/can_freertos_customization/Power_Ip_MC_RGM_Irq.o
 .bss           0x34035860        0x0 tmp/obj/gcc/can_freertos_customization/Power_Ip_MSCM.o
 .bss           0x34035860        0x0 tmp/obj/gcc/can_freertos_customization/Power_Ip_PMC.o
 .bss           0x34035860        0x0 tmp/obj/gcc/can_freertos_customization/Power_Ip_Private.o
 .bss           0x34035860        0x0 tmp/obj/gcc/can_freertos_customization/Ram_Ip.o
 .bss           0x34035860        0x0 tmp/obj/gcc/can_freertos_customization/Port.o
 .bss           0x34035860        0x0 tmp/obj/gcc/can_freertos_customization/Port_Ipw.o
 .bss           0x34035860        0x0 tmp/obj/gcc/can_freertos_customization/Siul2_Port_Ip.o
 .bss           0x34035860        0x0 tmp/obj/gcc/can_freertos_customization/Dio.o
 .bss           0x34035860        0x0 tmp/obj/gcc/can_freertos_customization/Dio_Ipw.o
 .bss           0x34035860        0x0 tmp/obj/gcc/can_freertos_customization/Siul2_Dio_Ip.o
 .bss           0x34035860        0x0 tmp/obj/gcc/can_freertos_customization/Spi.o
 .bss           0x34035860        0x0 tmp/obj/gcc/can_freertos_customization/Spi_Ip.o
 .bss           0x34035860        0x0 tmp/obj/gcc/can_freertos_customization/Spi_Ip_Irq.o
 .bss           0x34035860        0x0 tmp/obj/gcc/can_freertos_customization/Spi_Ipw.o
 .bss           0x34035860        0x0 tmp/obj/gcc/can_freertos_customization/SchM_Mcu.o
 .bss           0x34035860        0x0 tmp/obj/gcc/can_freertos_customization/SchM_Port.o
 .bss           0x34035860        0x0 tmp/obj/gcc/can_freertos_customization/SchM_Dio.o
 .bss           0x34035860        0x0 tmp/obj/gcc/can_freertos_customization/SchM_Spi.o
 .bss           0x34035860        0x0 tmp/obj/gcc/can_freertos_customization/system.o
 .bss           0x34035860        0x0 tmp/obj/gcc/can_freertos_customization/IntCtrl_Ip.o
 .bss           0x34035860        0x0 tmp/obj/gcc/can_freertos_customization/Platform.o
 .bss           0x34035860        0x0 tmp/obj/gcc/can_freertos_customization/Platform_Ipw.o
 .bss           0x34035860        0x0 tmp/obj/gcc/can_freertos_customization/System_Ip.o
 .bss           0x34035860        0x0 tmp/obj/gcc/can_freertos_customization/SchM_Can_43_LLCE.o
 .bss           0x34035860        0x0 tmp/obj/gcc/can_freertos_customization/Can_43_LLCE.o
 .bss           0x34035860        0x0 tmp/obj/gcc/can_freertos_customization/Can_43_LLCE_IPW.o
 .bss           0x34035860        0x0 tmp/obj/gcc/can_freertos_customization/Can_43_LLCE_Irq.o
 .bss           0x34035860        0x0 tmp/obj/gcc/can_freertos_customization/Can_Callback.o
 .bss           0x34035860        0x0 tmp/obj/gcc/can_freertos_customization/Can_Llce.o
 .bss           0x34035860        0x0 tmp/obj/gcc/can_freertos_customization/Llce_InterfaceCanConfig.o
 .bss           0x34035860        0x0 tmp/obj/gcc/can_freertos_customization/Llce_SwFifo.o
 .bss           0x34035860        0x0 tmp/obj/gcc/can_freertos_customization/croutine.o
 .bss           0x34035860        0x0 tmp/obj/gcc/can_freertos_customization/event_groups.o
 .bss           0x34035860        0x0 tmp/obj/gcc/can_freertos_customization/list.o
 .bss           0x34035860        0x0 tmp/obj/gcc/can_freertos_customization/queue.o
 .bss           0x34035860        0x0 tmp/obj/gcc/can_freertos_customization/stream_buffer.o
 .bss           0x34035860        0x0 tmp/obj/gcc/can_freertos_customization/tasks.o
 .bss           0x34035860        0x0 tmp/obj/gcc/can_freertos_customization/timers.o
 .bss           0x34035860        0x0 tmp/obj/gcc/can_freertos_customization/port_freertos.o
 .bss           0x34035860        0x0 tmp/obj/gcc/can_freertos_customization/heap_4.o
 .bss           0x34035860        0x0 C:\cygwin64\tmp\ccS5tM1S.o
 .bss           0x34035860        0x0 c:/compiler/gcc-arm-none-eabi-10.3/bin/../lib/gcc/arm-none-eabi/10.3.1/thumb/v7e-m+fp/hard\libgcc.a(_aeabi_uldivmod.o)
 .bss           0x34035860        0x0 c:/compiler/gcc-arm-none-eabi-10.3/bin/../lib/gcc/arm-none-eabi/10.3.1/thumb/v7e-m+fp/hard\libgcc.a(_udivmoddi4.o)
 .bss           0x34035860        0x0 c:/compiler/gcc-arm-none-eabi-10.3/bin/../lib/gcc/arm-none-eabi/10.3.1/thumb/v7e-m+fp/hard\libgcc.a(_dvmd_tls.o)
 .bss           0x34035860        0x0 c:/compiler/gcc-arm-none-eabi-10.3/bin/../lib/gcc/arm-none-eabi/10.3.1/../../../../arm-none-eabi/lib/thumb/v7e-m+fp/hard\libg_nano.a(lib_a-memcpy-stub.o)
 .bss           0x34035860        0x0 c:/compiler/gcc-arm-none-eabi-10.3/bin/../lib/gcc/arm-none-eabi/10.3.1/../../../../arm-none-eabi/lib/thumb/v7e-m+fp/hard\libg_nano.a(lib_a-memset.o)
 .bss           0x34035860        0x0 c:/compiler/gcc-arm-none-eabi-10.3/bin/../lib/gcc/arm-none-eabi/10.3.1/../../../../arm-none-eabi/lib/thumb/v7e-m+fp/hard\libg_nano.a(lib_a-sprintf.o)
 .bss           0x34035860        0x0 c:/compiler/gcc-arm-none-eabi-10.3/bin/../lib/gcc/arm-none-eabi/10.3.1/../../../../arm-none-eabi/lib/thumb/v7e-m+fp/hard\libg_nano.a(lib_a-strcpy.o)
 .bss           0x34035860        0x0 c:/compiler/gcc-arm-none-eabi-10.3/bin/../lib/gcc/arm-none-eabi/10.3.1/../../../../arm-none-eabi/lib/thumb/v7e-m+fp/hard\libg_nano.a(lib_a-strlen.o)
 .bss           0x34035860        0x0 c:/compiler/gcc-arm-none-eabi-10.3/bin/../lib/gcc/arm-none-eabi/10.3.1/../../../../arm-none-eabi/lib/thumb/v7e-m+fp/hard\libg_nano.a(lib_a-impure.o)
 .bss           0x34035860        0x0 c:/compiler/gcc-arm-none-eabi-10.3/bin/../lib/gcc/arm-none-eabi/10.3.1/../../../../arm-none-eabi/lib/thumb/v7e-m+fp/hard\libg_nano.a(lib_a-nano-svfprintf.o)
 .bss           0x34035860        0x0 c:/compiler/gcc-arm-none-eabi-10.3/bin/../lib/gcc/arm-none-eabi/10.3.1/../../../../arm-none-eabi/lib/thumb/v7e-m+fp/hard\libg_nano.a(lib_a-nano-vfprintf_i.o)
 .bss           0x34035860        0x0 c:/compiler/gcc-arm-none-eabi-10.3/bin/../lib/gcc/arm-none-eabi/10.3.1/../../../../arm-none-eabi/lib/thumb/v7e-m+fp/hard\libg_nano.a(lib_a-memchr.o)
 .bss           0x34035860        0x0 c:/compiler/gcc-arm-none-eabi-10.3/bin/../lib/gcc/arm-none-eabi/10.3.1/../../../../arm-none-eabi/lib/thumb/v7e-m+fp/hard\libg_nano.a(lib_a-memmove.o)
 .bss           0x34035860        0x0 c:/compiler/gcc-arm-none-eabi-10.3/bin/../lib/gcc/arm-none-eabi/10.3.1/../../../../arm-none-eabi/lib/thumb/v7e-m+fp/hard\libg_nano.a(lib_a-nano-freer.o)
 .bss           0x34035860        0x0 c:/compiler/gcc-arm-none-eabi-10.3/bin/../lib/gcc/arm-none-eabi/10.3.1/../../../../arm-none-eabi/lib/thumb/v7e-m+fp/hard\libg_nano.a(lib_a-nano-mallocr.o)
 .bss           0x34035860        0x0 c:/compiler/gcc-arm-none-eabi-10.3/bin/../lib/gcc/arm-none-eabi/10.3.1/../../../../arm-none-eabi/lib/thumb/v7e-m+fp/hard\libg_nano.a(lib_a-nano-reallocr.o)
 .bss           0x34035860        0x0 c:/compiler/gcc-arm-none-eabi-10.3/bin/../lib/gcc/arm-none-eabi/10.3.1/../../../../arm-none-eabi/lib/thumb/v7e-m+fp/hard\libg_nano.a(lib_a-sbrkr.o)
 .bss           0x34035860        0x0 c:/compiler/gcc-arm-none-eabi-10.3/bin/../lib/gcc/arm-none-eabi/10.3.1/../../../../arm-none-eabi/lib/thumb/v7e-m+fp/hard\libg_nano.a(lib_a-mlock.o)
 .bss           0x34035860        0x0 c:/compiler/gcc-arm-none-eabi-10.3/bin/../lib/gcc/arm-none-eabi/10.3.1/../../../../arm-none-eabi/lib/thumb/v7e-m+fp/hard\libg_nano.a(lib_a-nano-msizer.o)
 .bss           0x34035860        0x0 c:/compiler/gcc-arm-none-eabi-10.3/bin/../lib/gcc/arm-none-eabi/10.3.1/../../../../arm-none-eabi/lib/thumb/v7e-m+fp/hard\libg_nano.a(lib_a-reent.o)
 .bss           0x34035860        0x0 c:/compiler/gcc-arm-none-eabi-10.3/bin/../lib/gcc/arm-none-eabi/10.3.1/../../../../arm-none-eabi/lib/thumb/v7e-m+fp/hard\libg_nano.a(lib_a-lock.o)
 .bss           0x34035860        0x0 c:/compiler/gcc-arm-none-eabi-10.3/bin/../lib/gcc/arm-none-eabi/10.3.1/../../../../arm-none-eabi/lib/thumb/v7e-m+fp/hard\libnosys.a(sbrk.o)
 *(.bss*)
 .bss.last_RxIndication
                0x34035860        0x4 tmp/obj/gcc/can_freertos_customization/can_common.o
                0x34035860                last_RxIndication
 .bss.last_TxConfirmation
                0x34035864        0x4 tmp/obj/gcc/can_freertos_customization/can_common.o
                0x34035864                last_TxConfirmation
 .bss.Can_RxData
                0x34035868       0x40 tmp/obj/gcc/can_freertos_customization/stubs.o
                0x34035868                Can_RxData
 .bss.Can_RxHandle
                0x340358a8        0x1 tmp/obj/gcc/can_freertos_customization/stubs.o
                0x340358a8                Can_RxHandle
 *fill*         0x340358a9        0x3 
 .bss.Can_RxId  0x340358ac        0x4 tmp/obj/gcc/can_freertos_customization/stubs.o
                0x340358ac                Can_RxId
 .bss.Can_RxDlc
                0x340358b0        0x1 tmp/obj/gcc/can_freertos_customization/stubs.o
                0x340358b0                Can_RxDlc
 .bss.Can_ControllerId
                0x340358b1        0x1 tmp/obj/gcc/can_freertos_customization/stubs.o
                0x340358b1                Can_ControllerId
 *fill*         0x340358b2        0x2 
 .bss.Can_RxIndication
                0x340358b4        0x4 tmp/obj/gcc/can_freertos_customization/stubs.o
                0x340358b4                Can_RxIndication
 .bss.Can_TxConfirmation_CanTxPduId
                0x340358b8        0x2 tmp/obj/gcc/can_freertos_customization/stubs.o
                0x340358b8                Can_TxConfirmation_CanTxPduId
 *fill*         0x340358ba        0x2 
 .bss.Can_TxConfirmation
                0x340358bc        0x4 tmp/obj/gcc/can_freertos_customization/stubs.o
                0x340358bc                Can_TxConfirmation
 .bss.Can_Tx_No
                0x340358c0       0x40 tmp/obj/gcc/can_freertos_customization/stubs.o
                0x340358c0                Can_Tx_No
 .bss.Can_BusOffConfirmation
                0x34035900        0x1 tmp/obj/gcc/can_freertos_customization/stubs.o
                0x34035900                Can_BusOffConfirmation
 *fill*         0x34035901        0x3 
 .bss.u32CustomCallbackExecutions
                0x34035904        0x4 tmp/obj/gcc/can_freertos_customization/stubs.o
                0x34035904                u32CustomCallbackExecutions
 .bss.gTic12400StsReg
                0x34035908       0x10 tmp/obj/gcc/can_freertos_customization/main.o
                0x34035908                gTic12400StsReg
 .bss.zongtest  0x34035918        0x2 tmp/obj/gcc/can_freertos_customization/main.o
                0x34035918                zongtest
 .bss.zongtest2
                0x3403591a        0x2 tmp/obj/gcc/can_freertos_customization/main.o
                0x3403591a                zongtest2
 .bss.zongtest2_old
                0x3403591c        0x2 tmp/obj/gcc/can_freertos_customization/main.o
                0x3403591c                zongtest2_old
 .bss.zongflag  0x3403591e        0x1 tmp/obj/gcc/can_freertos_customization/main.o
                0x3403591e                zongflag
 .bss.zongIoflag
                0x3403591f        0x1 tmp/obj/gcc/can_freertos_customization/main.o
                0x3403591f                zongIoflag
 .bss.RxRegdata
                0x34035920        0x4 tmp/obj/gcc/can_freertos_customization/main.o
                0x34035920                RxRegdata
 .bss.TxRegdata
                0x34035924        0x4 tmp/obj/gcc/can_freertos_customization/main.o
                0x34035924                TxRegdata
 .bss.timer_io  0x34035928        0x2 tmp/obj/gcc/can_freertos_customization/main.o
                0x34035928                timer_io
 .bss.zongtest1_freertos
                0x3403592a        0x2 tmp/obj/gcc/can_freertos_customization/main.o
                0x3403592a                zongtest1_freertos
 .bss.zongtest2_freertos
                0x3403592c        0x2 tmp/obj/gcc/can_freertos_customization/main.o
                0x3403592c                zongtest2_freertos
 .bss.zongtest3_freertos
                0x3403592e        0x2 tmp/obj/gcc/can_freertos_customization/main.o
                0x3403592e                zongtest3_freertos
 .bss.Task1_Handle
                0x34035930        0x4 tmp/obj/gcc/can_freertos_customization/main.o
                0x34035930                Task1_Handle
 .bss.Task2_Handle
                0x34035934        0x4 tmp/obj/gcc/can_freertos_customization/main.o
                0x34035934                Task2_Handle
 .bss.Task3_Handle
                0x34035938        0x4 tmp/obj/gcc/can_freertos_customization/main.o
                0x34035938                Task3_Handle
 .bss.MonitorTask_Handle
                0x3403593c        0x4 tmp/obj/gcc/can_freertos_customization/main.o
                0x3403593c                MonitorTask_Handle
 .bss.CpuTaskStatsBuffer
                0x34035940       0xc8 tmp/obj/gcc/can_freertos_customization/main.o
 .bss.xReturned1
                0x34035a08        0x4 tmp/obj/gcc/can_freertos_customization/main.o
                0x34035a08                xReturned1
 .bss.xReturned2
                0x34035a0c        0x4 tmp/obj/gcc/can_freertos_customization/main.o
                0x34035a0c                xReturned2
 .bss.DelayTimer.0
                0x34035a10        0x4 tmp/obj/gcc/can_freertos_customization/main.o
 .bss.Spi_BufferTX_VS_0_SpiChannel_0_TIC12400
                0x34035a14        0x4 tmp/obj/gcc/can_freertos_customization/Spi_VS_0_PBcfg.o
 .bss.Spi_BufferRX_VS_0_SpiChannel_0_TIC12400
                0x34035a18        0x4 tmp/obj/gcc/can_freertos_customization/Spi_VS_0_PBcfg.o
 .bss.OsIf_au32InternalFrequencies
                0x34035a1c        0x4 tmp/obj/gcc/can_freertos_customization/OsIf_Timer_System.o
 .bss.Det_InstanceId
                0x34035a20        0xa tmp/obj/gcc/can_freertos_customization/Det.o
                0x34035a20                Det_InstanceId
 *fill*         0x34035a2a        0x2 
 .bss.Det_ApiId
                0x34035a2c        0xa tmp/obj/gcc/can_freertos_customization/Det.o
                0x34035a2c                Det_ApiId
 *fill*         0x34035a36        0x2 
 .bss.Det_ErrorId
                0x34035a38        0xa tmp/obj/gcc/can_freertos_customization/Det.o
                0x34035a38                Det_ErrorId
 *fill*         0x34035a42        0x2 
 .bss.Det_RuntimeInstanceId
                0x34035a44        0xa tmp/obj/gcc/can_freertos_customization/Det.o
                0x34035a44                Det_RuntimeInstanceId
 *fill*         0x34035a4e        0x2 
 .bss.Det_RuntimeApiId
                0x34035a50        0xa tmp/obj/gcc/can_freertos_customization/Det.o
                0x34035a50                Det_RuntimeApiId
 *fill*         0x34035a5a        0x2 
 .bss.Det_RuntimeErrorId
                0x34035a5c        0xa tmp/obj/gcc/can_freertos_customization/Det.o
                0x34035a5c                Det_RuntimeErrorId
 *fill*         0x34035a66        0x2 
 .bss.Det_TransientInstanceId
                0x34035a68        0xa tmp/obj/gcc/can_freertos_customization/Det.o
                0x34035a68                Det_TransientInstanceId
 *fill*         0x34035a72        0x2 
 .bss.Det_TransientApiId
                0x34035a74        0xa tmp/obj/gcc/can_freertos_customization/Det.o
                0x34035a74                Det_TransientApiId
 *fill*         0x34035a7e        0x2 
 .bss.Det_TransientFaultId
                0x34035a80        0xa tmp/obj/gcc/can_freertos_customization/Det.o
                0x34035a80                Det_TransientFaultId
 *fill*         0x34035a8a        0x2 
 .bss.Det_TransientModuleId
                0x34035a8c       0x14 tmp/obj/gcc/can_freertos_customization/Det.o
                0x34035a8c                Det_TransientModuleId
 .bss.Det_ModuleId
                0x34035aa0       0x14 tmp/obj/gcc/can_freertos_customization/Det.o
                0x34035aa0                Det_ModuleId
 .bss.Det_RuntimeModuleId
                0x34035ab4       0x14 tmp/obj/gcc/can_freertos_customization/Det.o
                0x34035ab4                Det_RuntimeModuleId
 .bss.Dem_EventId
                0x34035ac8      0x7f0 tmp/obj/gcc/can_freertos_customization/Dem.o
                0x34035ac8                Dem_EventId
 .bss.Dem_EventStatus
                0x340362b8      0x3f8 tmp/obj/gcc/can_freertos_customization/Dem.o
                0x340362b8                Dem_EventStatus
 .bss.Dem_OverflowEvent
                0x340366b0        0x8 tmp/obj/gcc/can_freertos_customization/Dem.o
                0x340366b0                Dem_OverflowEvent
 .bss.Dem_au8ExtendedData
                0x340366b8      0x320 tmp/obj/gcc/can_freertos_customization/Dem.o
                0x340366b8                Dem_au8ExtendedData
 .bss.Dem_numEventErrors
                0x340369d8       0x20 tmp/obj/gcc/can_freertos_customization/Dem.o
                0x340369d8                Dem_numEventErrors
 .bss.EcuMLastWakeupEvent
                0x340369f8        0x4 tmp/obj/gcc/can_freertos_customization/EcuM.o
                0x340369f8                EcuMLastWakeupEvent
 .bss.Clock_Ip_bClockTreeIsConsumingPll
                0x340369fc        0x1 tmp/obj/gcc/can_freertos_customization/Clock_Ip.o
 .bss.Clock_Ip_bObjectsAreInitialized
                0x340369fd        0x1 tmp/obj/gcc/can_freertos_customization/Clock_Ip.o
 *fill*         0x340369fe        0x2 
 .bss.Clock_Ip_pxConfig
                0x34036a00        0x4 tmp/obj/gcc/can_freertos_customization/Clock_Ip.o
                0x34036a00                Clock_Ip_pxConfig
 .bss.FunctionWasCalled.0
                0x34036a04        0x1 tmp/obj/gcc/can_freertos_customization/Clock_Ip.o
 *fill*         0x34036a05        0x3 
 .bss.Hash.0    0x34036a08       0xd0 tmp/obj/gcc/can_freertos_customization/Clock_Ip_Monitor.o
 .bss.Hash.2    0x34036ad8       0xd0 tmp/obj/gcc/can_freertos_customization/Clock_Ip_ProgFreqSwitch.o
 .bss.Mcu_au8ClockConfigIds
                0x34036ba8        0x1 tmp/obj/gcc/can_freertos_customization/Mcu.o
 *fill*         0x34036ba9        0x3 
 .bss.Mcu_au8ModeConfigIds
                0x34036bac        0x1 tmp/obj/gcc/can_freertos_customization/Mcu.o
 *fill*         0x34036bad        0x3 
 .bss.Mcu_pConfigPtr
                0x34036bb0        0x4 tmp/obj/gcc/can_freertos_customization/Mcu.o
 .bss.Power_Ip_u32DesResetStatus
                0x34036bb4        0x4 tmp/obj/gcc/can_freertos_customization/Power_Ip_MC_RGM.o
 .bss.Power_Ip_u32FesResetStatus
                0x34036bb8        0x4 tmp/obj/gcc/can_freertos_customization/Power_Ip_MC_RGM.o
 .bss.Port_pConfigPtr
                0x34036bbc        0x4 tmp/obj/gcc/can_freertos_customization/Port.o
 .bss.pPort_Setting
                0x34036bc0        0x4 tmp/obj/gcc/can_freertos_customization/Siul2_Port_Ip.o
 .bss.u32MaxPinConfigured
                0x34036bc4        0x4 tmp/obj/gcc/can_freertos_customization/Siul2_Port_Ip.o
 .bss.Spi_axSpiHwUnitQueueArray
                0x34036bc8       0x16 tmp/obj/gcc/can_freertos_customization/Spi.o
                0x34036bc8                Spi_axSpiHwUnitQueueArray
 *fill*         0x34036bde        0x2 
 .bss.Spi_apxSpiConfigPtr
                0x34036be0        0x4 tmp/obj/gcc/can_freertos_customization/Spi.o
                0x34036be0                Spi_apxSpiConfigPtr
 .bss.Spi_axSpiSequenceState
                0x34036be4       0x10 tmp/obj/gcc/can_freertos_customization/Spi.o
 .bss.Spi_axSpiJobState
                0x34036bf4        0xc tmp/obj/gcc/can_freertos_customization/Spi.o
                0x34036bf4                Spi_axSpiJobState
 .bss.Spi_axSpiChannelState
                0x34036c00        0x4 tmp/obj/gcc/can_freertos_customization/Spi.o
                0x34036c00                Spi_axSpiChannelState
 .bss.Spi_au32SpiSeqUsedHWUnits
                0x34036c04        0x4 tmp/obj/gcc/can_freertos_customization/Spi.o
 .bss.Spi_au32SpiBusySyncHWUnitsStatus
                0x34036c08        0x4 tmp/obj/gcc/can_freertos_customization/Spi.o
 .bss.Spi_Ip_axStateStructure
                0x34036c0c       0x2c tmp/obj/gcc/can_freertos_customization/Spi_Ip.o
 .bss.Spi_Ip_apxStateStructureArray
                0x34036c38       0x18 tmp/obj/gcc/can_freertos_customization/Spi_Ip.o
                0x34036c38                Spi_Ip_apxStateStructureArray
 .bss.Spi_Ipw_au8SpiHWUnitMapping
                0x34036c50        0x6 tmp/obj/gcc/can_freertos_customization/Spi_Ipw.o
 *fill*         0x34036c56        0x2 
 .bss.msr_MCU_EXCLUSIVE_AREA_00
                0x34036c58       0x1c tmp/obj/gcc/can_freertos_customization/SchM_Mcu.o
 .bss.reentry_guard_MCU_EXCLUSIVE_AREA_00
                0x34036c74       0x1c tmp/obj/gcc/can_freertos_customization/SchM_Mcu.o
 .bss.msr_MCU_EXCLUSIVE_AREA_01
                0x34036c90       0x1c tmp/obj/gcc/can_freertos_customization/SchM_Mcu.o
 .bss.reentry_guard_MCU_EXCLUSIVE_AREA_01
                0x34036cac       0x1c tmp/obj/gcc/can_freertos_customization/SchM_Mcu.o
 .bss.msr_MCU_EXCLUSIVE_AREA_02
                0x34036cc8       0x1c tmp/obj/gcc/can_freertos_customization/SchM_Mcu.o
 .bss.reentry_guard_MCU_EXCLUSIVE_AREA_02
                0x34036ce4       0x1c tmp/obj/gcc/can_freertos_customization/SchM_Mcu.o
 .bss.msr_PORT_EXCLUSIVE_AREA_00
                0x34036d00       0x1c tmp/obj/gcc/can_freertos_customization/SchM_Port.o
 .bss.reentry_guard_PORT_EXCLUSIVE_AREA_00
                0x34036d1c       0x1c tmp/obj/gcc/can_freertos_customization/SchM_Port.o
 .bss.msr_PORT_EXCLUSIVE_AREA_01
                0x34036d38       0x1c tmp/obj/gcc/can_freertos_customization/SchM_Port.o
 .bss.reentry_guard_PORT_EXCLUSIVE_AREA_01
                0x34036d54       0x1c tmp/obj/gcc/can_freertos_customization/SchM_Port.o
 .bss.msr_PORT_EXCLUSIVE_AREA_02
                0x34036d70       0x1c tmp/obj/gcc/can_freertos_customization/SchM_Port.o
 .bss.reentry_guard_PORT_EXCLUSIVE_AREA_02
                0x34036d8c       0x1c tmp/obj/gcc/can_freertos_customization/SchM_Port.o
 .bss.msr_PORT_EXCLUSIVE_AREA_03
                0x34036da8       0x1c tmp/obj/gcc/can_freertos_customization/SchM_Port.o
 .bss.reentry_guard_PORT_EXCLUSIVE_AREA_03
                0x34036dc4       0x1c tmp/obj/gcc/can_freertos_customization/SchM_Port.o
 .bss.msr_PORT_EXCLUSIVE_AREA_04
                0x34036de0       0x1c tmp/obj/gcc/can_freertos_customization/SchM_Port.o
 .bss.reentry_guard_PORT_EXCLUSIVE_AREA_04
                0x34036dfc       0x1c tmp/obj/gcc/can_freertos_customization/SchM_Port.o
 .bss.msr_PORT_EXCLUSIVE_AREA_05
                0x34036e18       0x1c tmp/obj/gcc/can_freertos_customization/SchM_Port.o
 .bss.reentry_guard_PORT_EXCLUSIVE_AREA_05
                0x34036e34       0x1c tmp/obj/gcc/can_freertos_customization/SchM_Port.o
 .bss.msr_PORT_EXCLUSIVE_AREA_06
                0x34036e50       0x1c tmp/obj/gcc/can_freertos_customization/SchM_Port.o
 .bss.reentry_guard_PORT_EXCLUSIVE_AREA_06
                0x34036e6c       0x1c tmp/obj/gcc/can_freertos_customization/SchM_Port.o
 .bss.msr_PORT_EXCLUSIVE_AREA_07
                0x34036e88       0x1c tmp/obj/gcc/can_freertos_customization/SchM_Port.o
 .bss.reentry_guard_PORT_EXCLUSIVE_AREA_07
                0x34036ea4       0x1c tmp/obj/gcc/can_freertos_customization/SchM_Port.o
 .bss.msr_PORT_EXCLUSIVE_AREA_08
                0x34036ec0       0x1c tmp/obj/gcc/can_freertos_customization/SchM_Port.o
 .bss.reentry_guard_PORT_EXCLUSIVE_AREA_08
                0x34036edc       0x1c tmp/obj/gcc/can_freertos_customization/SchM_Port.o
 .bss.msr_PORT_EXCLUSIVE_AREA_09
                0x34036ef8       0x1c tmp/obj/gcc/can_freertos_customization/SchM_Port.o
 .bss.reentry_guard_PORT_EXCLUSIVE_AREA_09
                0x34036f14       0x1c tmp/obj/gcc/can_freertos_customization/SchM_Port.o
 .bss.msr_PORT_EXCLUSIVE_AREA_10
                0x34036f30       0x1c tmp/obj/gcc/can_freertos_customization/SchM_Port.o
 .bss.reentry_guard_PORT_EXCLUSIVE_AREA_10
                0x34036f4c       0x1c tmp/obj/gcc/can_freertos_customization/SchM_Port.o
 .bss.msr_PORT_EXCLUSIVE_AREA_11
                0x34036f68       0x1c tmp/obj/gcc/can_freertos_customization/SchM_Port.o
 .bss.reentry_guard_PORT_EXCLUSIVE_AREA_11
                0x34036f84       0x1c tmp/obj/gcc/can_freertos_customization/SchM_Port.o
 .bss.msr_PORT_EXCLUSIVE_AREA_12
                0x34036fa0       0x1c tmp/obj/gcc/can_freertos_customization/SchM_Port.o
 .bss.reentry_guard_PORT_EXCLUSIVE_AREA_12
                0x34036fbc       0x1c tmp/obj/gcc/can_freertos_customization/SchM_Port.o
 .bss.msr_PORT_EXCLUSIVE_AREA_13
                0x34036fd8       0x1c tmp/obj/gcc/can_freertos_customization/SchM_Port.o
 .bss.reentry_guard_PORT_EXCLUSIVE_AREA_13
                0x34036ff4       0x1c tmp/obj/gcc/can_freertos_customization/SchM_Port.o
 .bss.msr_PORT_EXCLUSIVE_AREA_14
                0x34037010       0x1c tmp/obj/gcc/can_freertos_customization/SchM_Port.o
 .bss.reentry_guard_PORT_EXCLUSIVE_AREA_14
                0x3403702c       0x1c tmp/obj/gcc/can_freertos_customization/SchM_Port.o
 .bss.msr_PORT_EXCLUSIVE_AREA_15
                0x34037048       0x1c tmp/obj/gcc/can_freertos_customization/SchM_Port.o
 .bss.reentry_guard_PORT_EXCLUSIVE_AREA_15
                0x34037064       0x1c tmp/obj/gcc/can_freertos_customization/SchM_Port.o
 .bss.msr_PORT_EXCLUSIVE_AREA_16
                0x34037080       0x1c tmp/obj/gcc/can_freertos_customization/SchM_Port.o
 .bss.reentry_guard_PORT_EXCLUSIVE_AREA_16
                0x3403709c       0x1c tmp/obj/gcc/can_freertos_customization/SchM_Port.o
 .bss.msr_PORT_EXCLUSIVE_AREA_17
                0x340370b8       0x1c tmp/obj/gcc/can_freertos_customization/SchM_Port.o
 .bss.reentry_guard_PORT_EXCLUSIVE_AREA_17
                0x340370d4       0x1c tmp/obj/gcc/can_freertos_customization/SchM_Port.o
 .bss.msr_PORT_EXCLUSIVE_AREA_18
                0x340370f0       0x1c tmp/obj/gcc/can_freertos_customization/SchM_Port.o
 .bss.reentry_guard_PORT_EXCLUSIVE_AREA_18
                0x3403710c       0x1c tmp/obj/gcc/can_freertos_customization/SchM_Port.o
 .bss.msr_PORT_EXCLUSIVE_AREA_19
                0x34037128       0x1c tmp/obj/gcc/can_freertos_customization/SchM_Port.o
 .bss.reentry_guard_PORT_EXCLUSIVE_AREA_19
                0x34037144       0x1c tmp/obj/gcc/can_freertos_customization/SchM_Port.o
 .bss.msr_PORT_EXCLUSIVE_AREA_20
                0x34037160       0x1c tmp/obj/gcc/can_freertos_customization/SchM_Port.o
 .bss.reentry_guard_PORT_EXCLUSIVE_AREA_20
                0x3403717c       0x1c tmp/obj/gcc/can_freertos_customization/SchM_Port.o
 .bss.msr_PORT_EXCLUSIVE_AREA_21
                0x34037198       0x1c tmp/obj/gcc/can_freertos_customization/SchM_Port.o
 .bss.reentry_guard_PORT_EXCLUSIVE_AREA_21
                0x340371b4       0x1c tmp/obj/gcc/can_freertos_customization/SchM_Port.o
 .bss.msr_PORT_EXCLUSIVE_AREA_22
                0x340371d0       0x1c tmp/obj/gcc/can_freertos_customization/SchM_Port.o
 .bss.reentry_guard_PORT_EXCLUSIVE_AREA_22
                0x340371ec       0x1c tmp/obj/gcc/can_freertos_customization/SchM_Port.o
 .bss.msr_PORT_EXCLUSIVE_AREA_23
                0x34037208       0x1c tmp/obj/gcc/can_freertos_customization/SchM_Port.o
 .bss.reentry_guard_PORT_EXCLUSIVE_AREA_23
                0x34037224       0x1c tmp/obj/gcc/can_freertos_customization/SchM_Port.o
 .bss.msr_PORT_EXCLUSIVE_AREA_24
                0x34037240       0x1c tmp/obj/gcc/can_freertos_customization/SchM_Port.o
 .bss.reentry_guard_PORT_EXCLUSIVE_AREA_24
                0x3403725c       0x1c tmp/obj/gcc/can_freertos_customization/SchM_Port.o
 .bss.msr_PORT_EXCLUSIVE_AREA_25
                0x34037278       0x1c tmp/obj/gcc/can_freertos_customization/SchM_Port.o
 .bss.reentry_guard_PORT_EXCLUSIVE_AREA_25
                0x34037294       0x1c tmp/obj/gcc/can_freertos_customization/SchM_Port.o
 .bss.msr_PORT_EXCLUSIVE_AREA_26
                0x340372b0       0x1c tmp/obj/gcc/can_freertos_customization/SchM_Port.o
 .bss.reentry_guard_PORT_EXCLUSIVE_AREA_26
                0x340372cc       0x1c tmp/obj/gcc/can_freertos_customization/SchM_Port.o
 .bss.msr_PORT_EXCLUSIVE_AREA_27
                0x340372e8       0x1c tmp/obj/gcc/can_freertos_customization/SchM_Port.o
 .bss.reentry_guard_PORT_EXCLUSIVE_AREA_27
                0x34037304       0x1c tmp/obj/gcc/can_freertos_customization/SchM_Port.o
 .bss.msr_DIO_EXCLUSIVE_AREA_00
                0x34037320       0x1c tmp/obj/gcc/can_freertos_customization/SchM_Dio.o
 .bss.reentry_guard_DIO_EXCLUSIVE_AREA_00
                0x3403733c       0x1c tmp/obj/gcc/can_freertos_customization/SchM_Dio.o
 .bss.msr_DIO_EXCLUSIVE_AREA_01
                0x34037358       0x1c tmp/obj/gcc/can_freertos_customization/SchM_Dio.o
 .bss.reentry_guard_DIO_EXCLUSIVE_AREA_01
                0x34037374       0x1c tmp/obj/gcc/can_freertos_customization/SchM_Dio.o
 .bss.msr_SPI_EXCLUSIVE_AREA_00
                0x34037390       0x1c tmp/obj/gcc/can_freertos_customization/SchM_Spi.o
 .bss.reentry_guard_SPI_EXCLUSIVE_AREA_00
                0x340373ac       0x1c tmp/obj/gcc/can_freertos_customization/SchM_Spi.o
 .bss.msr_SPI_EXCLUSIVE_AREA_01
                0x340373c8       0x1c tmp/obj/gcc/can_freertos_customization/SchM_Spi.o
 .bss.reentry_guard_SPI_EXCLUSIVE_AREA_01
                0x340373e4       0x1c tmp/obj/gcc/can_freertos_customization/SchM_Spi.o
 .bss.msr_SPI_EXCLUSIVE_AREA_02
                0x34037400       0x1c tmp/obj/gcc/can_freertos_customization/SchM_Spi.o
 .bss.reentry_guard_SPI_EXCLUSIVE_AREA_02
                0x3403741c       0x1c tmp/obj/gcc/can_freertos_customization/SchM_Spi.o
 .bss.msr_SPI_EXCLUSIVE_AREA_03
                0x34037438       0x1c tmp/obj/gcc/can_freertos_customization/SchM_Spi.o
 .bss.reentry_guard_SPI_EXCLUSIVE_AREA_03
                0x34037454       0x1c tmp/obj/gcc/can_freertos_customization/SchM_Spi.o
 .bss.msr_SPI_EXCLUSIVE_AREA_04
                0x34037470       0x1c tmp/obj/gcc/can_freertos_customization/SchM_Spi.o
 .bss.reentry_guard_SPI_EXCLUSIVE_AREA_04
                0x3403748c       0x1c tmp/obj/gcc/can_freertos_customization/SchM_Spi.o
 .bss.msr_SPI_EXCLUSIVE_AREA_05
                0x340374a8       0x1c tmp/obj/gcc/can_freertos_customization/SchM_Spi.o
 .bss.reentry_guard_SPI_EXCLUSIVE_AREA_05
                0x340374c4       0x1c tmp/obj/gcc/can_freertos_customization/SchM_Spi.o
 .bss.msr_SPI_EXCLUSIVE_AREA_06
                0x340374e0       0x1c tmp/obj/gcc/can_freertos_customization/SchM_Spi.o
 .bss.reentry_guard_SPI_EXCLUSIVE_AREA_06
                0x340374fc       0x1c tmp/obj/gcc/can_freertos_customization/SchM_Spi.o
 .bss.msr_SPI_EXCLUSIVE_AREA_07
                0x34037518       0x1c tmp/obj/gcc/can_freertos_customization/SchM_Spi.o
 .bss.reentry_guard_SPI_EXCLUSIVE_AREA_07
                0x34037534       0x1c tmp/obj/gcc/can_freertos_customization/SchM_Spi.o
 .bss.msr_SPI_EXCLUSIVE_AREA_08
                0x34037550       0x1c tmp/obj/gcc/can_freertos_customization/SchM_Spi.o
 .bss.reentry_guard_SPI_EXCLUSIVE_AREA_08
                0x3403756c       0x1c tmp/obj/gcc/can_freertos_customization/SchM_Spi.o
 .bss.msr_SPI_EXCLUSIVE_AREA_09
                0x34037588       0x1c tmp/obj/gcc/can_freertos_customization/SchM_Spi.o
 .bss.reentry_guard_SPI_EXCLUSIVE_AREA_09
                0x340375a4       0x1c tmp/obj/gcc/can_freertos_customization/SchM_Spi.o
 .bss.msr_SPI_EXCLUSIVE_AREA_10
                0x340375c0       0x1c tmp/obj/gcc/can_freertos_customization/SchM_Spi.o
 .bss.reentry_guard_SPI_EXCLUSIVE_AREA_10
                0x340375dc       0x1c tmp/obj/gcc/can_freertos_customization/SchM_Spi.o
 .bss.msr_SPI_EXCLUSIVE_AREA_11
                0x340375f8       0x1c tmp/obj/gcc/can_freertos_customization/SchM_Spi.o
 .bss.reentry_guard_SPI_EXCLUSIVE_AREA_11
                0x34037614       0x1c tmp/obj/gcc/can_freertos_customization/SchM_Spi.o
 .bss.msr_SPI_EXCLUSIVE_AREA_12
                0x34037630       0x1c tmp/obj/gcc/can_freertos_customization/SchM_Spi.o
 .bss.reentry_guard_SPI_EXCLUSIVE_AREA_12
                0x3403764c       0x1c tmp/obj/gcc/can_freertos_customization/SchM_Spi.o
 .bss.msr_SPI_EXCLUSIVE_AREA_13
                0x34037668       0x1c tmp/obj/gcc/can_freertos_customization/SchM_Spi.o
 .bss.reentry_guard_SPI_EXCLUSIVE_AREA_13
                0x34037684       0x1c tmp/obj/gcc/can_freertos_customization/SchM_Spi.o
 .bss.msr_SPI_EXCLUSIVE_AREA_14
                0x340376a0       0x1c tmp/obj/gcc/can_freertos_customization/SchM_Spi.o
 .bss.reentry_guard_SPI_EXCLUSIVE_AREA_14
                0x340376bc       0x1c tmp/obj/gcc/can_freertos_customization/SchM_Spi.o
 .bss.msr_SPI_EXCLUSIVE_AREA_15
                0x340376d8       0x1c tmp/obj/gcc/can_freertos_customization/SchM_Spi.o
 .bss.reentry_guard_SPI_EXCLUSIVE_AREA_15
                0x340376f4       0x1c tmp/obj/gcc/can_freertos_customization/SchM_Spi.o
 .bss.msr_SPI_EXCLUSIVE_AREA_16
                0x34037710       0x1c tmp/obj/gcc/can_freertos_customization/SchM_Spi.o
 .bss.reentry_guard_SPI_EXCLUSIVE_AREA_16
                0x3403772c       0x1c tmp/obj/gcc/can_freertos_customization/SchM_Spi.o
 .bss.msr_SPI_EXCLUSIVE_AREA_17
                0x34037748       0x1c tmp/obj/gcc/can_freertos_customization/SchM_Spi.o
 .bss.reentry_guard_SPI_EXCLUSIVE_AREA_17
                0x34037764       0x1c tmp/obj/gcc/can_freertos_customization/SchM_Spi.o
 .bss.msr_SPI_EXCLUSIVE_AREA_18
                0x34037780       0x1c tmp/obj/gcc/can_freertos_customization/SchM_Spi.o
 .bss.reentry_guard_SPI_EXCLUSIVE_AREA_18
                0x3403779c       0x1c tmp/obj/gcc/can_freertos_customization/SchM_Spi.o
 .bss.RESET_CATCH_CORE
                0x340377b8        0x4 tmp/obj/gcc/can_freertos_customization/system.o
                0x340377b8                RESET_CATCH_CORE
 .bss.msr_CAN_EXCLUSIVE_AREA_00
                0x340377bc       0x1c tmp/obj/gcc/can_freertos_customization/SchM_Can_43_LLCE.o
 .bss.reentry_guard_CAN_EXCLUSIVE_AREA_00
                0x340377d8       0x1c tmp/obj/gcc/can_freertos_customization/SchM_Can_43_LLCE.o
 .bss.msr_CAN_EXCLUSIVE_AREA_01
                0x340377f4       0x1c tmp/obj/gcc/can_freertos_customization/SchM_Can_43_LLCE.o
 .bss.reentry_guard_CAN_EXCLUSIVE_AREA_01
                0x34037810       0x1c tmp/obj/gcc/can_freertos_customization/SchM_Can_43_LLCE.o
 .bss.msr_CAN_EXCLUSIVE_AREA_02
                0x3403782c       0x1c tmp/obj/gcc/can_freertos_customization/SchM_Can_43_LLCE.o
 .bss.reentry_guard_CAN_EXCLUSIVE_AREA_02
                0x34037848       0x1c tmp/obj/gcc/can_freertos_customization/SchM_Can_43_LLCE.o
 .bss.msr_CAN_EXCLUSIVE_AREA_03
                0x34037864       0x1c tmp/obj/gcc/can_freertos_customization/SchM_Can_43_LLCE.o
 .bss.reentry_guard_CAN_EXCLUSIVE_AREA_03
                0x34037880       0x1c tmp/obj/gcc/can_freertos_customization/SchM_Can_43_LLCE.o
 .bss.msr_CAN_EXCLUSIVE_AREA_04
                0x3403789c       0x1c tmp/obj/gcc/can_freertos_customization/SchM_Can_43_LLCE.o
 .bss.reentry_guard_CAN_EXCLUSIVE_AREA_04
                0x340378b8       0x1c tmp/obj/gcc/can_freertos_customization/SchM_Can_43_LLCE.o
 .bss.msr_CAN_EXCLUSIVE_AREA_05
                0x340378d4       0x1c tmp/obj/gcc/can_freertos_customization/SchM_Can_43_LLCE.o
 .bss.reentry_guard_CAN_EXCLUSIVE_AREA_05
                0x340378f0       0x1c tmp/obj/gcc/can_freertos_customization/SchM_Can_43_LLCE.o
 .bss.msr_CAN_EXCLUSIVE_AREA_06
                0x3403790c       0x1c tmp/obj/gcc/can_freertos_customization/SchM_Can_43_LLCE.o
 .bss.reentry_guard_CAN_EXCLUSIVE_AREA_06
                0x34037928       0x1c tmp/obj/gcc/can_freertos_customization/SchM_Can_43_LLCE.o
 .bss.msr_CAN_EXCLUSIVE_AREA_07
                0x34037944       0x1c tmp/obj/gcc/can_freertos_customization/SchM_Can_43_LLCE.o
 .bss.reentry_guard_CAN_EXCLUSIVE_AREA_07
                0x34037960       0x1c tmp/obj/gcc/can_freertos_customization/SchM_Can_43_LLCE.o
 .bss.msr_CAN_EXCLUSIVE_AREA_08
                0x3403797c       0x1c tmp/obj/gcc/can_freertos_customization/SchM_Can_43_LLCE.o
 .bss.reentry_guard_CAN_EXCLUSIVE_AREA_08
                0x34037998       0x1c tmp/obj/gcc/can_freertos_customization/SchM_Can_43_LLCE.o
 .bss.msr_CAN_EXCLUSIVE_AREA_09
                0x340379b4       0x1c tmp/obj/gcc/can_freertos_customization/SchM_Can_43_LLCE.o
 .bss.reentry_guard_CAN_EXCLUSIVE_AREA_09
                0x340379d0       0x1c tmp/obj/gcc/can_freertos_customization/SchM_Can_43_LLCE.o
 .bss.msr_CAN_EXCLUSIVE_AREA_10
                0x340379ec       0x1c tmp/obj/gcc/can_freertos_customization/SchM_Can_43_LLCE.o
 .bss.reentry_guard_CAN_EXCLUSIVE_AREA_10
                0x34037a08       0x1c tmp/obj/gcc/can_freertos_customization/SchM_Can_43_LLCE.o
 .bss.msr_CAN_EXCLUSIVE_AREA_11
                0x34037a24       0x1c tmp/obj/gcc/can_freertos_customization/SchM_Can_43_LLCE.o
 .bss.reentry_guard_CAN_EXCLUSIVE_AREA_11
                0x34037a40       0x1c tmp/obj/gcc/can_freertos_customization/SchM_Can_43_LLCE.o
 .bss.msr_CAN_EXCLUSIVE_AREA_12
                0x34037a5c       0x1c tmp/obj/gcc/can_freertos_customization/SchM_Can_43_LLCE.o
 .bss.reentry_guard_CAN_EXCLUSIVE_AREA_12
                0x34037a78       0x1c tmp/obj/gcc/can_freertos_customization/SchM_Can_43_LLCE.o
 .bss.msr_CAN_EXCLUSIVE_AREA_13
                0x34037a94       0x1c tmp/obj/gcc/can_freertos_customization/SchM_Can_43_LLCE.o
 .bss.reentry_guard_CAN_EXCLUSIVE_AREA_13
                0x34037ab0       0x1c tmp/obj/gcc/can_freertos_customization/SchM_Can_43_LLCE.o
 .bss.msr_CAN_EXCLUSIVE_AREA_14
                0x34037acc       0x1c tmp/obj/gcc/can_freertos_customization/SchM_Can_43_LLCE.o
 .bss.reentry_guard_CAN_EXCLUSIVE_AREA_14
                0x34037ae8       0x1c tmp/obj/gcc/can_freertos_customization/SchM_Can_43_LLCE.o
 .bss.msr_CAN_EXCLUSIVE_AREA_15
                0x34037b04       0x1c tmp/obj/gcc/can_freertos_customization/SchM_Can_43_LLCE.o
 .bss.reentry_guard_CAN_EXCLUSIVE_AREA_15
                0x34037b20       0x1c tmp/obj/gcc/can_freertos_customization/SchM_Can_43_LLCE.o
 .bss.msr_CAN_EXCLUSIVE_AREA_16
                0x34037b3c       0x1c tmp/obj/gcc/can_freertos_customization/SchM_Can_43_LLCE.o
 .bss.reentry_guard_CAN_EXCLUSIVE_AREA_16
                0x34037b58       0x1c tmp/obj/gcc/can_freertos_customization/SchM_Can_43_LLCE.o
 .bss.msr_CAN_EXCLUSIVE_AREA_17
                0x34037b74       0x1c tmp/obj/gcc/can_freertos_customization/SchM_Can_43_LLCE.o
 .bss.reentry_guard_CAN_EXCLUSIVE_AREA_17
                0x34037b90       0x1c tmp/obj/gcc/can_freertos_customization/SchM_Can_43_LLCE.o
 .bss.msr_CAN_EXCLUSIVE_AREA_18
                0x34037bac       0x1c tmp/obj/gcc/can_freertos_customization/SchM_Can_43_LLCE.o
 .bss.reentry_guard_CAN_EXCLUSIVE_AREA_18
                0x34037bc8       0x1c tmp/obj/gcc/can_freertos_customization/SchM_Can_43_LLCE.o
 .bss.msr_CAN_EXCLUSIVE_AREA_19
                0x34037be4       0x1c tmp/obj/gcc/can_freertos_customization/SchM_Can_43_LLCE.o
 .bss.reentry_guard_CAN_EXCLUSIVE_AREA_19
                0x34037c00       0x1c tmp/obj/gcc/can_freertos_customization/SchM_Can_43_LLCE.o
 .bss.msr_CAN_EXCLUSIVE_AREA_20
                0x34037c1c       0x1c tmp/obj/gcc/can_freertos_customization/SchM_Can_43_LLCE.o
 .bss.reentry_guard_CAN_EXCLUSIVE_AREA_20
                0x34037c38       0x1c tmp/obj/gcc/can_freertos_customization/SchM_Can_43_LLCE.o
 .bss.msr_CAN_EXCLUSIVE_AREA_21
                0x34037c54       0x1c tmp/obj/gcc/can_freertos_customization/SchM_Can_43_LLCE.o
 .bss.reentry_guard_CAN_EXCLUSIVE_AREA_21
                0x34037c70       0x1c tmp/obj/gcc/can_freertos_customization/SchM_Can_43_LLCE.o
 .bss.msr_CAN_EXCLUSIVE_AREA_22
                0x34037c8c       0x1c tmp/obj/gcc/can_freertos_customization/SchM_Can_43_LLCE.o
 .bss.reentry_guard_CAN_EXCLUSIVE_AREA_22
                0x34037ca8       0x1c tmp/obj/gcc/can_freertos_customization/SchM_Can_43_LLCE.o
 .bss.msr_CAN_EXCLUSIVE_AREA_23
                0x34037cc4       0x1c tmp/obj/gcc/can_freertos_customization/SchM_Can_43_LLCE.o
 .bss.reentry_guard_CAN_EXCLUSIVE_AREA_23
                0x34037ce0       0x1c tmp/obj/gcc/can_freertos_customization/SchM_Can_43_LLCE.o
 .bss.msr_CAN_EXCLUSIVE_AREA_24
                0x34037cfc       0x1c tmp/obj/gcc/can_freertos_customization/SchM_Can_43_LLCE.o
 .bss.reentry_guard_CAN_EXCLUSIVE_AREA_24
                0x34037d18       0x1c tmp/obj/gcc/can_freertos_customization/SchM_Can_43_LLCE.o
 .bss.msr_CAN_EXCLUSIVE_AREA_25
                0x34037d34       0x1c tmp/obj/gcc/can_freertos_customization/SchM_Can_43_LLCE.o
 .bss.reentry_guard_CAN_EXCLUSIVE_AREA_25
                0x34037d50       0x1c tmp/obj/gcc/can_freertos_customization/SchM_Can_43_LLCE.o
 .bss.msr_CAN_EXCLUSIVE_AREA_26
                0x34037d6c       0x1c tmp/obj/gcc/can_freertos_customization/SchM_Can_43_LLCE.o
 .bss.reentry_guard_CAN_EXCLUSIVE_AREA_26
                0x34037d88       0x1c tmp/obj/gcc/can_freertos_customization/SchM_Can_43_LLCE.o
 .bss.msr_CAN_EXCLUSIVE_AREA_27
                0x34037da4       0x1c tmp/obj/gcc/can_freertos_customization/SchM_Can_43_LLCE.o
 .bss.reentry_guard_CAN_EXCLUSIVE_AREA_27
                0x34037dc0       0x1c tmp/obj/gcc/can_freertos_customization/SchM_Can_43_LLCE.o
 .bss.msr_CAN_EXCLUSIVE_AREA_28
                0x34037ddc       0x1c tmp/obj/gcc/can_freertos_customization/SchM_Can_43_LLCE.o
 .bss.reentry_guard_CAN_EXCLUSIVE_AREA_28
                0x34037df8       0x1c tmp/obj/gcc/can_freertos_customization/SchM_Can_43_LLCE.o
 .bss.msr_CAN_EXCLUSIVE_AREA_29
                0x34037e14       0x1c tmp/obj/gcc/can_freertos_customization/SchM_Can_43_LLCE.o
 .bss.reentry_guard_CAN_EXCLUSIVE_AREA_29
                0x34037e30       0x1c tmp/obj/gcc/can_freertos_customization/SchM_Can_43_LLCE.o
 .bss.msr_CAN_EXCLUSIVE_AREA_30
                0x34037e4c       0x1c tmp/obj/gcc/can_freertos_customization/SchM_Can_43_LLCE.o
 .bss.reentry_guard_CAN_EXCLUSIVE_AREA_30
                0x34037e68       0x1c tmp/obj/gcc/can_freertos_customization/SchM_Can_43_LLCE.o
 .bss.msr_CAN_EXCLUSIVE_AREA_31
                0x34037e84       0x1c tmp/obj/gcc/can_freertos_customization/SchM_Can_43_LLCE.o
 .bss.reentry_guard_CAN_EXCLUSIVE_AREA_31
                0x34037ea0       0x1c tmp/obj/gcc/can_freertos_customization/SchM_Can_43_LLCE.o
 .bss.msr_CAN_EXCLUSIVE_AREA_32
                0x34037ebc       0x1c tmp/obj/gcc/can_freertos_customization/SchM_Can_43_LLCE.o
 .bss.reentry_guard_CAN_EXCLUSIVE_AREA_32
                0x34037ed8       0x1c tmp/obj/gcc/can_freertos_customization/SchM_Can_43_LLCE.o
 .bss.msr_CAN_EXCLUSIVE_AREA_33
                0x34037ef4       0x1c tmp/obj/gcc/can_freertos_customization/SchM_Can_43_LLCE.o
 .bss.reentry_guard_CAN_EXCLUSIVE_AREA_33
                0x34037f10       0x1c tmp/obj/gcc/can_freertos_customization/SchM_Can_43_LLCE.o
 .bss.msr_CAN_EXCLUSIVE_AREA_34
                0x34037f2c       0x1c tmp/obj/gcc/can_freertos_customization/SchM_Can_43_LLCE.o
 .bss.reentry_guard_CAN_EXCLUSIVE_AREA_34
                0x34037f48       0x1c tmp/obj/gcc/can_freertos_customization/SchM_Can_43_LLCE.o
 .bss.msr_CAN_EXCLUSIVE_AREA_35
                0x34037f64       0x1c tmp/obj/gcc/can_freertos_customization/SchM_Can_43_LLCE.o
 .bss.reentry_guard_CAN_EXCLUSIVE_AREA_35
                0x34037f80       0x1c tmp/obj/gcc/can_freertos_customization/SchM_Can_43_LLCE.o
 .bss.msr_CAN_EXCLUSIVE_AREA_36
                0x34037f9c       0x1c tmp/obj/gcc/can_freertos_customization/SchM_Can_43_LLCE.o
 .bss.reentry_guard_CAN_EXCLUSIVE_AREA_36
                0x34037fb8       0x1c tmp/obj/gcc/can_freertos_customization/SchM_Can_43_LLCE.o
 .bss.msr_CAN_EXCLUSIVE_AREA_37
                0x34037fd4       0x1c tmp/obj/gcc/can_freertos_customization/SchM_Can_43_LLCE.o
 .bss.reentry_guard_CAN_EXCLUSIVE_AREA_37
                0x34037ff0       0x1c tmp/obj/gcc/can_freertos_customization/SchM_Can_43_LLCE.o
 .bss.msr_CAN_EXCLUSIVE_AREA_38
                0x3403800c       0x1c tmp/obj/gcc/can_freertos_customization/SchM_Can_43_LLCE.o
 .bss.reentry_guard_CAN_EXCLUSIVE_AREA_38
                0x34038028       0x1c tmp/obj/gcc/can_freertos_customization/SchM_Can_43_LLCE.o
 .bss.msr_CAN_EXCLUSIVE_AREA_39
                0x34038044       0x1c tmp/obj/gcc/can_freertos_customization/SchM_Can_43_LLCE.o
 .bss.reentry_guard_CAN_EXCLUSIVE_AREA_39
                0x34038060       0x1c tmp/obj/gcc/can_freertos_customization/SchM_Can_43_LLCE.o
 .bss.msr_CAN_EXCLUSIVE_AREA_40
                0x3403807c       0x1c tmp/obj/gcc/can_freertos_customization/SchM_Can_43_LLCE.o
 .bss.reentry_guard_CAN_EXCLUSIVE_AREA_40
                0x34038098       0x1c tmp/obj/gcc/can_freertos_customization/SchM_Can_43_LLCE.o
 .bss.msr_CAN_EXCLUSIVE_AREA_41
                0x340380b4       0x1c tmp/obj/gcc/can_freertos_customization/SchM_Can_43_LLCE.o
 .bss.reentry_guard_CAN_EXCLUSIVE_AREA_41
                0x340380d0       0x1c tmp/obj/gcc/can_freertos_customization/SchM_Can_43_LLCE.o
 .bss.msr_CAN_EXCLUSIVE_AREA_42
                0x340380ec       0x1c tmp/obj/gcc/can_freertos_customization/SchM_Can_43_LLCE.o
 .bss.reentry_guard_CAN_EXCLUSIVE_AREA_42
                0x34038108       0x1c tmp/obj/gcc/can_freertos_customization/SchM_Can_43_LLCE.o
 .bss.msr_CAN_EXCLUSIVE_AREA_43
                0x34038124       0x1c tmp/obj/gcc/can_freertos_customization/SchM_Can_43_LLCE.o
 .bss.reentry_guard_CAN_EXCLUSIVE_AREA_43
                0x34038140       0x1c tmp/obj/gcc/can_freertos_customization/SchM_Can_43_LLCE.o
 .bss.msr_CAN_EXCLUSIVE_AREA_44
                0x3403815c       0x1c tmp/obj/gcc/can_freertos_customization/SchM_Can_43_LLCE.o
 .bss.reentry_guard_CAN_EXCLUSIVE_AREA_44
                0x34038178       0x1c tmp/obj/gcc/can_freertos_customization/SchM_Can_43_LLCE.o
 .bss.msr_CAN_EXCLUSIVE_AREA_45
                0x34038194       0x1c tmp/obj/gcc/can_freertos_customization/SchM_Can_43_LLCE.o
 .bss.reentry_guard_CAN_EXCLUSIVE_AREA_45
                0x340381b0       0x1c tmp/obj/gcc/can_freertos_customization/SchM_Can_43_LLCE.o
 .bss.msr_CAN_EXCLUSIVE_AREA_46
                0x340381cc       0x1c tmp/obj/gcc/can_freertos_customization/SchM_Can_43_LLCE.o
 .bss.reentry_guard_CAN_EXCLUSIVE_AREA_46
                0x340381e8       0x1c tmp/obj/gcc/can_freertos_customization/SchM_Can_43_LLCE.o
 .bss.msr_CAN_EXCLUSIVE_AREA_47
                0x34038204       0x1c tmp/obj/gcc/can_freertos_customization/SchM_Can_43_LLCE.o
 .bss.reentry_guard_CAN_EXCLUSIVE_AREA_47
                0x34038220       0x1c tmp/obj/gcc/can_freertos_customization/SchM_Can_43_LLCE.o
 .bss.msr_CAN_EXCLUSIVE_AREA_48
                0x3403823c       0x1c tmp/obj/gcc/can_freertos_customization/SchM_Can_43_LLCE.o
 .bss.reentry_guard_CAN_EXCLUSIVE_AREA_48
                0x34038258       0x1c tmp/obj/gcc/can_freertos_customization/SchM_Can_43_LLCE.o
 .bss.msr_CAN_EXCLUSIVE_AREA_49
                0x34038274       0x1c tmp/obj/gcc/can_freertos_customization/SchM_Can_43_LLCE.o
 .bss.reentry_guard_CAN_EXCLUSIVE_AREA_49
                0x34038290       0x1c tmp/obj/gcc/can_freertos_customization/SchM_Can_43_LLCE.o
 .bss.msr_CAN_EXCLUSIVE_AREA_50
                0x340382ac       0x1c tmp/obj/gcc/can_freertos_customization/SchM_Can_43_LLCE.o
 .bss.reentry_guard_CAN_EXCLUSIVE_AREA_50
                0x340382c8       0x1c tmp/obj/gcc/can_freertos_customization/SchM_Can_43_LLCE.o
 .bss.msr_CAN_EXCLUSIVE_AREA_51
                0x340382e4       0x1c tmp/obj/gcc/can_freertos_customization/SchM_Can_43_LLCE.o
 .bss.reentry_guard_CAN_EXCLUSIVE_AREA_51
                0x34038300       0x1c tmp/obj/gcc/can_freertos_customization/SchM_Can_43_LLCE.o
 .bss.msr_CAN_EXCLUSIVE_AREA_52
                0x3403831c       0x1c tmp/obj/gcc/can_freertos_customization/SchM_Can_43_LLCE.o
 .bss.reentry_guard_CAN_EXCLUSIVE_AREA_52
                0x34038338       0x1c tmp/obj/gcc/can_freertos_customization/SchM_Can_43_LLCE.o
 .bss.msr_CAN_EXCLUSIVE_AREA_53
                0x34038354       0x1c tmp/obj/gcc/can_freertos_customization/SchM_Can_43_LLCE.o
 .bss.reentry_guard_CAN_EXCLUSIVE_AREA_53
                0x34038370       0x1c tmp/obj/gcc/can_freertos_customization/SchM_Can_43_LLCE.o
 .bss.msr_CAN_EXCLUSIVE_AREA_54
                0x3403838c       0x1c tmp/obj/gcc/can_freertos_customization/SchM_Can_43_LLCE.o
 .bss.reentry_guard_CAN_EXCLUSIVE_AREA_54
                0x340383a8       0x1c tmp/obj/gcc/can_freertos_customization/SchM_Can_43_LLCE.o
 .bss.msr_CAN_EXCLUSIVE_AREA_55
                0x340383c4       0x1c tmp/obj/gcc/can_freertos_customization/SchM_Can_43_LLCE.o
 .bss.reentry_guard_CAN_EXCLUSIVE_AREA_55
                0x340383e0       0x1c tmp/obj/gcc/can_freertos_customization/SchM_Can_43_LLCE.o
 .bss.msr_CAN_EXCLUSIVE_AREA_56
                0x340383fc       0x1c tmp/obj/gcc/can_freertos_customization/SchM_Can_43_LLCE.o
 .bss.reentry_guard_CAN_EXCLUSIVE_AREA_56
                0x34038418       0x1c tmp/obj/gcc/can_freertos_customization/SchM_Can_43_LLCE.o
 .bss.msr_CAN_EXCLUSIVE_AREA_57
                0x34038434       0x1c tmp/obj/gcc/can_freertos_customization/SchM_Can_43_LLCE.o
 .bss.reentry_guard_CAN_EXCLUSIVE_AREA_57
                0x34038450       0x1c tmp/obj/gcc/can_freertos_customization/SchM_Can_43_LLCE.o
 .bss.msr_CAN_EXCLUSIVE_AREA_58
                0x3403846c       0x1c tmp/obj/gcc/can_freertos_customization/SchM_Can_43_LLCE.o
 .bss.reentry_guard_CAN_EXCLUSIVE_AREA_58
                0x34038488       0x1c tmp/obj/gcc/can_freertos_customization/SchM_Can_43_LLCE.o
 .bss.msr_CAN_EXCLUSIVE_AREA_59
                0x340384a4       0x1c tmp/obj/gcc/can_freertos_customization/SchM_Can_43_LLCE.o
 .bss.reentry_guard_CAN_EXCLUSIVE_AREA_59
                0x340384c0       0x1c tmp/obj/gcc/can_freertos_customization/SchM_Can_43_LLCE.o
 .bss.msr_CAN_EXCLUSIVE_AREA_60
                0x340384dc       0x1c tmp/obj/gcc/can_freertos_customization/SchM_Can_43_LLCE.o
 .bss.reentry_guard_CAN_EXCLUSIVE_AREA_60
                0x340384f8       0x1c tmp/obj/gcc/can_freertos_customization/SchM_Can_43_LLCE.o
 .bss.msr_CAN_EXCLUSIVE_AREA_61
                0x34038514       0x1c tmp/obj/gcc/can_freertos_customization/SchM_Can_43_LLCE.o
 .bss.reentry_guard_CAN_EXCLUSIVE_AREA_61
                0x34038530       0x1c tmp/obj/gcc/can_freertos_customization/SchM_Can_43_LLCE.o
 .bss.msr_CAN_EXCLUSIVE_AREA_62
                0x3403854c       0x1c tmp/obj/gcc/can_freertos_customization/SchM_Can_43_LLCE.o
 .bss.reentry_guard_CAN_EXCLUSIVE_AREA_62
                0x34038568       0x1c tmp/obj/gcc/can_freertos_customization/SchM_Can_43_LLCE.o
 .bss.msr_CAN_EXCLUSIVE_AREA_63
                0x34038584       0x1c tmp/obj/gcc/can_freertos_customization/SchM_Can_43_LLCE.o
 .bss.reentry_guard_CAN_EXCLUSIVE_AREA_63
                0x340385a0       0x1c tmp/obj/gcc/can_freertos_customization/SchM_Can_43_LLCE.o
 .bss.msr_CAN_EXCLUSIVE_AREA_64
                0x340385bc       0x1c tmp/obj/gcc/can_freertos_customization/SchM_Can_43_LLCE.o
 .bss.reentry_guard_CAN_EXCLUSIVE_AREA_64
                0x340385d8       0x1c tmp/obj/gcc/can_freertos_customization/SchM_Can_43_LLCE.o
 .bss.Can_au16TransmitHwObjectCnt
                0x340385f4       0x20 tmp/obj/gcc/can_freertos_customization/Can_43_LLCE.o
                0x340385f4                Can_au16TransmitHwObjectCnt
 .bss.Can_43_LLCE_eDriverStatus
                0x34038614        0x1 tmp/obj/gcc/can_freertos_customization/Can_43_LLCE.o
                0x34038614                Can_43_LLCE_eDriverStatus
 *fill*         0x34038615        0x3 
 .bss.Can_43_LLCE_pCurrentConfig
                0x34038618        0x4 tmp/obj/gcc/can_freertos_customization/Can_43_LLCE.o
                0x34038618                Can_43_LLCE_pCurrentConfig
 .bss.CanStatic_43_LLCE_pCurrentConfig
                0x3403861c        0x4 tmp/obj/gcc/can_freertos_customization/Can_43_LLCE.o
                0x3403861c                CanStatic_43_LLCE_pCurrentConfig
 .bss.Can_43_LLCE_ControllerBaudRateIndexes
                0x34038620       0x10 tmp/obj/gcc/can_freertos_customization/Can_43_LLCE_IPW.o
                0x34038620                Can_43_LLCE_ControllerBaudRateIndexes
 .bss.Can_au8DestinationIdxMap
                0x34038630        0x2 tmp/obj/gcc/can_freertos_customization/Can_Llce.o
 *fill*         0x34038632        0x2 
 .bss.Can_43_LLCE_ControllerStatuses
                0x34038634       0x40 tmp/obj/gcc/can_freertos_customization/Can_Llce.o
 .bss.Can_SharedMemory
                0x34038674    0x3b4f0 tmp/obj/gcc/can_freertos_customization/Can_Llce.o
 .bss.Can_u16NotifIntrEnable
                0x34073b64        0x2 tmp/obj/gcc/can_freertos_customization/Can_Llce.o
 *fill*         0x34073b66        0x2 
 .bss.Can_au16RxHrh2FilterAddr
                0x34073b68       0x42 tmp/obj/gcc/can_freertos_customization/Can_Llce.o
 *fill*         0x34073baa        0x2 
 .bss.Can_apRxHrh2AfFilterCfg
                0x34073bac       0x84 tmp/obj/gcc/can_freertos_customization/Can_Llce.o
 .bss.u8FifoSetIntEnCnt
                0x34073c30       0x10 tmp/obj/gcc/can_freertos_customization/Can_Llce.o
 .bss.pGlobalConfigs
                0x34073c40        0x4 tmp/obj/gcc/can_freertos_customization/Can_Llce.o
 .bss.u8Length.1
                0x34073c44        0x1 tmp/obj/gcc/can_freertos_customization/Can_Llce.o
 *fill*         0x34073c45        0x3 
 .bss.stringBuf.0
                0x34073c48       0x32 tmp/obj/gcc/can_freertos_customization/Can_Llce.o
 *fill*         0x34073c7a        0x2 
 .bss.xQueueRegistry
                0x34073c7c       0x10 tmp/obj/gcc/can_freertos_customization/queue.o
                0x34073c7c                xQueueRegistry
 .bss.pxCurrentTCB
                0x34073c8c        0x4 tmp/obj/gcc/can_freertos_customization/tasks.o
                0x34073c8c                pxCurrentTCB
 .bss.pxReadyTasksLists
                0x34073c90       0x64 tmp/obj/gcc/can_freertos_customization/tasks.o
 .bss.xDelayedTaskList1
                0x34073cf4       0x14 tmp/obj/gcc/can_freertos_customization/tasks.o
 .bss.xDelayedTaskList2
                0x34073d08       0x14 tmp/obj/gcc/can_freertos_customization/tasks.o
 .bss.pxDelayedTaskList
                0x34073d1c        0x4 tmp/obj/gcc/can_freertos_customization/tasks.o
 .bss.pxOverflowDelayedTaskList
                0x34073d20        0x4 tmp/obj/gcc/can_freertos_customization/tasks.o
 .bss.xPendingReadyList
                0x34073d24       0x14 tmp/obj/gcc/can_freertos_customization/tasks.o
 .bss.xTasksWaitingTermination
                0x34073d38       0x14 tmp/obj/gcc/can_freertos_customization/tasks.o
 .bss.uxDeletedTasksWaitingCleanUp
                0x34073d4c        0x4 tmp/obj/gcc/can_freertos_customization/tasks.o
 .bss.xSuspendedTaskList
                0x34073d50       0x14 tmp/obj/gcc/can_freertos_customization/tasks.o
 .bss.uxCurrentNumberOfTasks
                0x34073d64        0x4 tmp/obj/gcc/can_freertos_customization/tasks.o
 .bss.xTickCount
                0x34073d68        0x4 tmp/obj/gcc/can_freertos_customization/tasks.o
 .bss.uxTopReadyPriority
                0x34073d6c        0x4 tmp/obj/gcc/can_freertos_customization/tasks.o
 .bss.xSchedulerRunning
                0x34073d70        0x4 tmp/obj/gcc/can_freertos_customization/tasks.o
 .bss.xPendedTicks
                0x34073d74        0x4 tmp/obj/gcc/can_freertos_customization/tasks.o
 .bss.xYieldPending
                0x34073d78        0x4 tmp/obj/gcc/can_freertos_customization/tasks.o
 .bss.xNumOfOverflows
                0x34073d7c        0x4 tmp/obj/gcc/can_freertos_customization/tasks.o
 .bss.uxTaskNumber
                0x34073d80        0x4 tmp/obj/gcc/can_freertos_customization/tasks.o
 .bss.xNextTaskUnblockTime
                0x34073d84        0x4 tmp/obj/gcc/can_freertos_customization/tasks.o
 .bss.xIdleTaskHandle
                0x34073d88        0x4 tmp/obj/gcc/can_freertos_customization/tasks.o
 .bss.uxSchedulerSuspended
                0x34073d8c        0x4 tmp/obj/gcc/can_freertos_customization/tasks.o
 .bss.ulTaskSwitchedInTime
                0x34073d90        0x4 tmp/obj/gcc/can_freertos_customization/tasks.o
 .bss.ulTotalRunTime
                0x34073d94        0x4 tmp/obj/gcc/can_freertos_customization/tasks.o
 .bss.xActiveTimerList1
                0x34073d98       0x14 tmp/obj/gcc/can_freertos_customization/timers.o
 .bss.xActiveTimerList2
                0x34073dac       0x14 tmp/obj/gcc/can_freertos_customization/timers.o
 .bss.pxCurrentTimerList
                0x34073dc0        0x4 tmp/obj/gcc/can_freertos_customization/timers.o
 .bss.pxOverflowTimerList
                0x34073dc4        0x4 tmp/obj/gcc/can_freertos_customization/timers.o
 .bss.xTimerQueue
                0x34073dc8        0x4 tmp/obj/gcc/can_freertos_customization/timers.o
 .bss.xTimerTaskHandle
                0x34073dcc        0x4 tmp/obj/gcc/can_freertos_customization/timers.o
 .bss.xLastTime.0
                0x34073dd0        0x4 tmp/obj/gcc/can_freertos_customization/timers.o
 .bss.ucMaxSysCallPriority
                0x34073dd4        0x1 tmp/obj/gcc/can_freertos_customization/port_freertos.o
 *fill*         0x34073dd5        0x3 
 .bss.ulMaxPRIGROUPValue
                0x34073dd8        0x4 tmp/obj/gcc/can_freertos_customization/port_freertos.o
 .bss.ucHeap    0x34073ddc     0x2000 tmp/obj/gcc/can_freertos_customization/heap_4.o
 .bss.xStart    0x34075ddc        0x8 tmp/obj/gcc/can_freertos_customization/heap_4.o
 .bss.pxEnd     0x34075de4        0x4 tmp/obj/gcc/can_freertos_customization/heap_4.o
 .bss.xFreeBytesRemaining
                0x34075de8        0x4 tmp/obj/gcc/can_freertos_customization/heap_4.o
 .bss.xMinimumEverFreeBytesRemaining
                0x34075dec        0x4 tmp/obj/gcc/can_freertos_customization/heap_4.o
 .bss.xNumberOfSuccessfulAllocations
                0x34075df0        0x4 tmp/obj/gcc/can_freertos_customization/heap_4.o
 .bss.xNumberOfSuccessfulFrees
                0x34075df4        0x4 tmp/obj/gcc/can_freertos_customization/heap_4.o
 .bss.xBlockAllocatedBit
                0x34075df8        0x4 tmp/obj/gcc/can_freertos_customization/heap_4.o
 .bss.__malloc_free_list
                0x34075dfc        0x4 c:/compiler/gcc-arm-none-eabi-10.3/bin/../lib/gcc/arm-none-eabi/10.3.1/../../../../arm-none-eabi/lib/thumb/v7e-m+fp/hard\libg_nano.a(lib_a-nano-mallocr.o)
                0x34075dfc                __malloc_free_list
 .bss.__malloc_sbrk_start
                0x34075e00        0x4 c:/compiler/gcc-arm-none-eabi-10.3/bin/../lib/gcc/arm-none-eabi/10.3.1/../../../../arm-none-eabi/lib/thumb/v7e-m+fp/hard\libg_nano.a(lib_a-nano-mallocr.o)
                0x34075e00                __malloc_sbrk_start
 .bss.errno     0x34075e04        0x4 c:/compiler/gcc-arm-none-eabi-10.3/bin/../lib/gcc/arm-none-eabi/10.3.1/../../../../arm-none-eabi/lib/thumb/v7e-m+fp/hard\libg_nano.a(lib_a-reent.o)
                0x34075e04                errno
 .bss.__lock___arc4random_mutex
                0x34075e08        0x1 c:/compiler/gcc-arm-none-eabi-10.3/bin/../lib/gcc/arm-none-eabi/10.3.1/../../../../arm-none-eabi/lib/thumb/v7e-m+fp/hard\libg_nano.a(lib_a-lock.o)
                0x34075e08                __lock___arc4random_mutex
 .bss.__lock___at_quick_exit_mutex
                0x34075e09        0x1 c:/compiler/gcc-arm-none-eabi-10.3/bin/../lib/gcc/arm-none-eabi/10.3.1/../../../../arm-none-eabi/lib/thumb/v7e-m+fp/hard\libg_nano.a(lib_a-lock.o)
                0x34075e09                __lock___at_quick_exit_mutex
 .bss.__lock___atexit_recursive_mutex
                0x34075e0a        0x1 c:/compiler/gcc-arm-none-eabi-10.3/bin/../lib/gcc/arm-none-eabi/10.3.1/../../../../arm-none-eabi/lib/thumb/v7e-m+fp/hard\libg_nano.a(lib_a-lock.o)
                0x34075e0a                __lock___atexit_recursive_mutex
 .bss.__lock___dd_hash_mutex
                0x34075e0b        0x1 c:/compiler/gcc-arm-none-eabi-10.3/bin/../lib/gcc/arm-none-eabi/10.3.1/../../../../arm-none-eabi/lib/thumb/v7e-m+fp/hard\libg_nano.a(lib_a-lock.o)
                0x34075e0b                __lock___dd_hash_mutex
 .bss.__lock___env_recursive_mutex
                0x34075e0c        0x1 c:/compiler/gcc-arm-none-eabi-10.3/bin/../lib/gcc/arm-none-eabi/10.3.1/../../../../arm-none-eabi/lib/thumb/v7e-m+fp/hard\libg_nano.a(lib_a-lock.o)
                0x34075e0c                __lock___env_recursive_mutex
 .bss.__lock___malloc_recursive_mutex
                0x34075e0d        0x1 c:/compiler/gcc-arm-none-eabi-10.3/bin/../lib/gcc/arm-none-eabi/10.3.1/../../../../arm-none-eabi/lib/thumb/v7e-m+fp/hard\libg_nano.a(lib_a-lock.o)
                0x34075e0d                __lock___malloc_recursive_mutex
 .bss.__lock___sfp_recursive_mutex
                0x34075e0e        0x1 c:/compiler/gcc-arm-none-eabi-10.3/bin/../lib/gcc/arm-none-eabi/10.3.1/../../../../arm-none-eabi/lib/thumb/v7e-m+fp/hard\libg_nano.a(lib_a-lock.o)
                0x34075e0e                __lock___sfp_recursive_mutex
 .bss.__lock___sinit_recursive_mutex
                0x34075e0f        0x1 c:/compiler/gcc-arm-none-eabi-10.3/bin/../lib/gcc/arm-none-eabi/10.3.1/../../../../arm-none-eabi/lib/thumb/v7e-m+fp/hard\libg_nano.a(lib_a-lock.o)
                0x34075e0f                __lock___sinit_recursive_mutex
 .bss.__lock___tz_mutex
                0x34075e10        0x1 c:/compiler/gcc-arm-none-eabi-10.3/bin/../lib/gcc/arm-none-eabi/10.3.1/../../../../arm-none-eabi/lib/thumb/v7e-m+fp/hard\libg_nano.a(lib_a-lock.o)
                0x34075e10                __lock___tz_mutex
 *fill*         0x34075e11        0x3 
 .bss.heap_end.0
                0x34075e14        0x4 c:/compiler/gcc-arm-none-eabi-10.3/bin/../lib/gcc/arm-none-eabi/10.3.1/../../../../arm-none-eabi/lib/thumb/v7e-m+fp/hard\libnosys.a(sbrk.o)
                0x34075e20                . = ALIGN (0x10)
 *fill*         0x34075e18        0x8 
 *(.mcal_bss)
                0x34075e20                . = ALIGN (0x4)
                0x34075e20                __sram_bss_end = .
                0x34075e20                . = ALIGN (0x4)
                0x34075e20                __sram_shareable_rom = .

.non_cacheable  0x34500000    0x40000
                0x34500000                . = ALIGN (0x4)
 *(.int_results)
                0x34500100                . = (. + 0x100)
 *fill*         0x34500000      0x100 
                0x34501000                . = ALIGN (0x1000)
 *fill*         0x34500100      0xf00 
                0x34501000                __interrupts_ram_start = .
 *(.intc_vector)
 .intc_vector   0x34501000      0x408 C:\cygwin64\tmp\ccMsMF9r.o
                0x34501000                VTABLE
                0x34501408                . = ALIGN (0x4)
                0x34501408                __interrupts_ram_end = .
                0x34501410                . = ALIGN (0x10)
 *fill*         0x34501408        0x8 
                0x34501410                __non_cacheable_bss_start = .
 *(.mcal_bss_no_cacheable)
                0x34501410                . = ALIGN (0x4)
                0x34501410                __non_cacheable_bss_end = .
                0x34501410                . = ALIGN (0x4)
 *(.mcal_data_no_cacheable)
                0x34501410                . = ALIGN (0x4)
 *(.mcal_const_no_cacheable)
                0x34501410                HSE_LOOP_ADDR = .
                0x34501410        0x4 LONG 0x0
                0x34540000                . = ALIGN (0x40000)
 *fill*         0x34501414    0x3ebec 
 *(.pfe_bmu_mem)
                0x34540000                . = ALIGN (0x4)
 *(.pfe_bd_mem)
                0x34540000                . = ALIGN (0x4)
 *(.pfe_buf_mem)

.ARM.extab      0x34540000        0x0
 .ARM.extab     0x34540000        0x0 c:/compiler/gcc-arm-none-eabi-10.3/bin/../lib/gcc/arm-none-eabi/10.3.1/thumb/v7e-m+fp/hard\libgcc.a(_udivmoddi4.o)

.ARM.exidx      0x34540000        0x8
 .ARM.exidx     0x34540000        0x8 c:/compiler/gcc-arm-none-eabi-10.3/bin/../lib/gcc/arm-none-eabi/10.3.1/thumb/v7e-m+fp/hard\libgcc.a(_udivmoddi4.o)

.glue_7         0x34540008        0x0
 .glue_7        0x34540008        0x0 linker stubs

.glue_7t        0x34540008        0x0
 .glue_7t       0x34540008        0x0 linker stubs

.vfp11_veneer   0x34540008        0x0
 .vfp11_veneer  0x34540008        0x0 linker stubs

.v4_bx          0x34540008        0x0
 .v4_bx         0x34540008        0x0 linker stubs

.iplt           0x34540008        0x0
 .iplt          0x34540008        0x0 C:\cygwin64\tmp\ccMsMF9r.o

.igot.plt       0x34540008        0x0
 .igot.plt      0x34540008        0x0 C:\cygwin64\tmp\ccMsMF9r.o

.rel.dyn        0x34540008        0x0
 .rel.iplt      0x34540008        0x0 C:\cygwin64\tmp\ccMsMF9r.o

.heap           0x34540008     0x3000
                0x00000000                . = (. + ALIGN (0x4))
                0x34540008                _end = .
                0x34540008                end = .
                0x34540008                _heap_start = .
                0x00003000                . = (. + HEAP_SIZE)
 *fill*         0x34540008     0x3000 
                0x34543008                _heap_end = .

.llce_boot_end  0x4383c8a0       0x38
                0x4383c8a0                . = ALIGN (0x4)
 *(.llce_boot_end)
 .llce_boot_end
                0x4383c8a0       0x38 tmp/obj/gcc/can_freertos_customization/Llce_Firmware_Load.o
                0x4383c8a0                Llce_Mgr_Status

.can_43_llce_sharedmemory
                0x43800000        0x0
                0x43800000                . = ALIGN (0x4)
 *(.can_43_llce_sharedmemory)

.lin_43_llce_sharedmemory
                0x4383c800        0x0
                0x4383c800                . = ALIGN (0x4)
 *(.lin_43_llce_sharedmemory)

.llce_meas_sharedmemory
                0x4384ffdf        0x1
                0x4384ffe0                . = ALIGN (0x4)
 *fill*         0x4384ffdf        0x1 
 *(.llce_meas_sharedmemory)

.shareable_ram_bss
                0x22c00000        0x0
                0x22c00000                . = ALIGN (0x10)
                0x22c00000                __shareable_bss_start = .
 *(.mcal_shared_bss)
                0x22c00000                . = ALIGN (0x4)
                0x22c00000                __shareable_bss_end = .

.shareable_ram_data
                0x22c00000        0x0 load address 0x34075e20
                0x22c00000                . = ALIGN (0x10)
                0x22c00000                __shareable_data_start = .
 *(.mcal_shared_data)
                0x22c00000                . = ALIGN (0x4)
                0x22c00000                __shareable_data_end = .
                0x34075e20                __sram_shareable_rom_end = (__sram_shareable_rom + (__shareable_data_end - __shareable_data_start))
                0x34400000                __Stack_end_c0 = ORIGIN (int_sram_stack_c0)
                0x34402000                __Stack_start_c0 = (ORIGIN (int_sram_stack_c0) + LENGTH (int_sram_stack_c0))
                0x34402000                __Stack_end_c1 = ORIGIN (int_sram_stack_c1)
                0x34404000                __Stack_start_c1 = (ORIGIN (int_sram_stack_c1) + LENGTH (int_sram_stack_c1))
                0x34404000                __Stack_end_c2 = ORIGIN (int_sram_stack_c2)
                0x34406000                __Stack_start_c2 = (ORIGIN (int_sram_stack_c2) + LENGTH (int_sram_stack_c2))
                0x00000000                __Stack_end_c3 = 0x0
                0x00000000                __Stack_start_c3 = 0x0
                0x34000000                __INT_SRAM_START = ORIGIN (int_sram)
                0x34600000                __INT_SRAM_END = ORIGIN (ram_rsvd2)
                0x00000000                __INT_ITCM_START = ORIGIN (int_itcm)
                0x00000000                __INT_ITCM_END = (ORIGIN (int_itcm) + LENGTH (int_itcm))
                0x20000000                __INT_DTCM_START = ORIGIN (int_dtcm)
                0x20010000                __INT_DTCM_END = (ORIGIN (int_dtcm) + LENGTH (int_dtcm))
                0x22c00000                __RAM_SHAREABLE_START = ORIGIN (int_sram_shareable)
                0x22c03fff                __RAM_SHAREABLE_END = ((ORIGIN (int_sram_shareable) + LENGTH (int_sram_shareable)) - 0x1)
                0x34075e20                __ROM_SHAREABLE_START = __sram_shareable_rom
                0x34075e20                __ROM_SHAREABLE_END = __sram_shareable_rom_end
                0x34500000                __RAM_NO_CACHEABLE_START = ORIGIN (int_sram_no_cacheable)
                0x345fffff                __RAM_NO_CACHEABLE_END = ((ORIGIN (int_sram_no_cacheable) + LENGTH (int_sram_no_cacheable)) - 0x1)
                0x00000000                __ROM_NO_CACHEABLE_START = 0x0
                0x00000000                __ROM_NO_CACHEABLE_END = 0x0
                0x34000000                __RAM_CACHEABLE_START = ORIGIN (int_sram)
                0x343fffff                __RAM_CACHEABLE_END = ((ORIGIN (int_sram) + LENGTH (int_sram)) - 0x1)
                0x00000000                __ROM_CACHEABLE_START = 0x0
                0x00000000                __ROM_CACHEABLE_END = 0x0
                0x34035860                __BSS_SRAM_START = __sram_bss_start
                0x34075e20                __BSS_SRAM_END = __sram_bss_end
                0x000405c0                __BSS_SRAM_SIZE = (__sram_bss_end - __sram_bss_start)
                0x34501410                __BSS_SRAM_NC_START = __non_cacheable_bss_start
                0x00000000                __BSS_SRAM_NC_SIZE = (__non_cacheable_bss_end - __non_cacheable_bss_start)
                0x34501410                __BSS_SRAM_NC_END = __non_cacheable_bss_end
                0x22c00000                __BSS_SRAM_SH_START = __shareable_bss_start
                0x00000000                __BSS_SRAM_SH_SIZE = (__shareable_bss_end - __shareable_bss_start)
                0x22c00000                __BSS_SRAM_SH_END = __shareable_bss_end
                0x34501000                __RAM_INTERRUPT_START = __interrupts_ram_start
                0x00000000                __ROM_INTERRUPT_START = 0x0
                0x00000000                __ROM_INTERRUPT_END = 0x0
                0x34022030                __INIT_TABLE = __init_table
                0x34022064                __ZERO_TABLE = __zero_table
                0x00000000                __RAM_INIT = 0x0
                0x00000000                __ITCM_INIT = 0x0
                0x00000001                __DTCM_INIT = 0x1

/DISCARD/
 *(.boot_header)
OUTPUT(tmp/can_freertos_customization.elf elf32-littlearm)
LOAD linker stubs

.ARM.attributes
                0x00000000       0x30
 .ARM.attributes
                0x00000000       0x20 C:\cygwin64\tmp\ccMsMF9r.o
 .ARM.attributes
                0x00000020       0x1f C:\cygwin64\tmp\ccklK50t.o
 .ARM.attributes
                0x0000003f       0x34 tmp/obj/gcc/can_freertos_customization/nvic.o
 .ARM.attributes
                0x00000073       0x34 tmp/obj/gcc/can_freertos_customization/exceptions.o
 .ARM.attributes
                0x000000a7       0x34 tmp/obj/gcc/can_freertos_customization/Platform_Init.o
 .ARM.attributes
                0x000000db       0x34 tmp/obj/gcc/can_freertos_customization/can_common.o
 .ARM.attributes
                0x0000010f       0x34 tmp/obj/gcc/can_freertos_customization/stubs.o
 .ARM.attributes
                0x00000143       0x34 tmp/obj/gcc/can_freertos_customization/dte.o
 .ARM.attributes
                0x00000177       0x34 tmp/obj/gcc/can_freertos_customization/frpe.o
 .ARM.attributes
                0x000001ab       0x34 tmp/obj/gcc/can_freertos_customization/ppe_rx.o
 .ARM.attributes
                0x000001df       0x34 tmp/obj/gcc/can_freertos_customization/ppe_tx.o
 .ARM.attributes
                0x00000213       0x34 tmp/obj/gcc/can_freertos_customization/Llce_Firmware_Load.o
 .ARM.attributes
                0x00000247       0x34 tmp/obj/gcc/can_freertos_customization/main.o
 .ARM.attributes
                0x0000027b       0x34 tmp/obj/gcc/can_freertos_customization/TIC12400Drv.o
 .ARM.attributes
                0x000002af       0x34 tmp/obj/gcc/can_freertos_customization/Can_43_LLCE_AFcfg.o
 .ARM.attributes
                0x000002e3       0x34 tmp/obj/gcc/can_freertos_customization/Can_43_LLCE_Cfg.o
 .ARM.attributes
                0x00000317       0x34 tmp/obj/gcc/can_freertos_customization/Can_43_LLCE_VS_0_PBcfg.o
 .ARM.attributes
                0x0000034b       0x34 tmp/obj/gcc/can_freertos_customization/Clock_Ip_Cfg.o
 .ARM.attributes
                0x0000037f       0x34 tmp/obj/gcc/can_freertos_customization/Clock_Ip_VS_0_PBcfg.o
 .ARM.attributes
                0x000003b3       0x34 tmp/obj/gcc/can_freertos_customization/Dio_Cfg.o
 .ARM.attributes
                0x000003e7       0x34 tmp/obj/gcc/can_freertos_customization/IntCtrl_Ip_Cfg.o
 .ARM.attributes
                0x0000041b       0x34 tmp/obj/gcc/can_freertos_customization/Mcu_Cfg.o
 .ARM.attributes
                0x0000044f       0x34 tmp/obj/gcc/can_freertos_customization/Mcu_VS_0_PBcfg.o
 .ARM.attributes
                0x00000483       0x34 tmp/obj/gcc/can_freertos_customization/OsIf_Cfg.o
 .ARM.attributes
                0x000004b7       0x34 tmp/obj/gcc/can_freertos_customization/Platform_Cfg.o
 .ARM.attributes
                0x000004eb       0x34 tmp/obj/gcc/can_freertos_customization/Platform_Ipw_Cfg.o
 .ARM.attributes
                0x0000051f       0x34 tmp/obj/gcc/can_freertos_customization/Port_Cfg.o
 .ARM.attributes
                0x00000553       0x34 tmp/obj/gcc/can_freertos_customization/Port_VS_0_PBcfg.o
 .ARM.attributes
                0x00000587       0x34 tmp/obj/gcc/can_freertos_customization/Power_Ip_Cfg.o
 .ARM.attributes
                0x000005bb       0x34 tmp/obj/gcc/can_freertos_customization/Power_Ip_VS_0_PBcfg.o
 .ARM.attributes
                0x000005ef       0x34 tmp/obj/gcc/can_freertos_customization/Ram_Ip_Cfg.o
 .ARM.attributes
                0x00000623       0x34 tmp/obj/gcc/can_freertos_customization/Ram_Ip_VS_0_PBcfg.o
 .ARM.attributes
                0x00000657       0x34 tmp/obj/gcc/can_freertos_customization/Siul2_Port_Ip_VS_0_PBcfg.o
 .ARM.attributes
                0x0000068b       0x34 tmp/obj/gcc/can_freertos_customization/Spi_Ip_VS_0_PBcfg.o
 .ARM.attributes
                0x000006bf       0x34 tmp/obj/gcc/can_freertos_customization/Spi_Ipw_VS_0_PBcfg.o
 .ARM.attributes
                0x000006f3       0x34 tmp/obj/gcc/can_freertos_customization/Spi_VS_0_PBcfg.o
 .ARM.attributes
                0x00000727       0x34 tmp/obj/gcc/can_freertos_customization/OsIf_Interrupts.o
 .ARM.attributes
                0x0000075b       0x34 tmp/obj/gcc/can_freertos_customization/OsIf_Timer.o
 .ARM.attributes
                0x0000078f       0x34 tmp/obj/gcc/can_freertos_customization/OsIf_Timer_System.o
 .ARM.attributes
                0x000007c3       0x34 tmp/obj/gcc/can_freertos_customization/OsIf_Timer_System_Internal_GenericTimer.o
 .ARM.attributes
                0x000007f7       0x34 tmp/obj/gcc/can_freertos_customization/OsIf_Timer_System_Internal_Systick.o
 .ARM.attributes
                0x0000082b       0x34 tmp/obj/gcc/can_freertos_customization/Det.o
 .ARM.attributes
                0x0000085f       0x34 tmp/obj/gcc/can_freertos_customization/Det_stub.o
 .ARM.attributes
                0x00000893       0x34 tmp/obj/gcc/can_freertos_customization/Dem.o
 .ARM.attributes
                0x000008c7       0x34 tmp/obj/gcc/can_freertos_customization/Dem_stub.o
 .ARM.attributes
                0x000008fb       0x34 tmp/obj/gcc/can_freertos_customization/EcuM.o
 .ARM.attributes
                0x0000092f       0x34 tmp/obj/gcc/can_freertos_customization/Clock_Ip.o
 .ARM.attributes
                0x00000963       0x34 tmp/obj/gcc/can_freertos_customization/Clock_Ip_Data.o
 .ARM.attributes
                0x00000997       0x34 tmp/obj/gcc/can_freertos_customization/Clock_Ip_Data1.o
 .ARM.attributes
                0x000009cb       0x34 tmp/obj/gcc/can_freertos_customization/Clock_Ip_Data2.o
 .ARM.attributes
                0x000009ff       0x34 tmp/obj/gcc/can_freertos_customization/Clock_Ip_Divider.o
 .ARM.attributes
                0x00000a33       0x34 tmp/obj/gcc/can_freertos_customization/Clock_Ip_DividerTrigger.o
 .ARM.attributes
                0x00000a67       0x34 tmp/obj/gcc/can_freertos_customization/Clock_Ip_ExtOsc.o
 .ARM.attributes
                0x00000a9b       0x34 tmp/obj/gcc/can_freertos_customization/Clock_Ip_FracDiv.o
 .ARM.attributes
                0x00000acf       0x34 tmp/obj/gcc/can_freertos_customization/Clock_Ip_Frequency.o
 .ARM.attributes
                0x00000b03       0x34 tmp/obj/gcc/can_freertos_customization/Clock_Ip_Frequency1.o
 .ARM.attributes
                0x00000b37       0x34 tmp/obj/gcc/can_freertos_customization/Clock_Ip_Frequency2.o
 .ARM.attributes
                0x00000b6b       0x34 tmp/obj/gcc/can_freertos_customization/Clock_Ip_Gate.o
 .ARM.attributes
                0x00000b9f       0x34 tmp/obj/gcc/can_freertos_customization/Clock_Ip_IntOsc.o
 .ARM.attributes
                0x00000bd3       0x34 tmp/obj/gcc/can_freertos_customization/Clock_Ip_Irq.o
 .ARM.attributes
                0x00000c07       0x34 tmp/obj/gcc/can_freertos_customization/Clock_Ip_Monitor.o
 .ARM.attributes
                0x00000c3b       0x34 tmp/obj/gcc/can_freertos_customization/Clock_Ip_Pll.o
 .ARM.attributes
                0x00000c6f       0x34 tmp/obj/gcc/can_freertos_customization/Clock_Ip_ProgFreqSwitch.o
 .ARM.attributes
                0x00000ca3       0x34 tmp/obj/gcc/can_freertos_customization/Clock_Ip_Selector.o
 .ARM.attributes
                0x00000cd7       0x34 tmp/obj/gcc/can_freertos_customization/Clock_Ip_Specific.o
 .ARM.attributes
                0x00000d0b       0x34 tmp/obj/gcc/can_freertos_customization/Clock_Ip_Specific1.o
 .ARM.attributes
                0x00000d3f       0x34 tmp/obj/gcc/can_freertos_customization/Clock_Ip_Specific2.o
 .ARM.attributes
                0x00000d73       0x34 tmp/obj/gcc/can_freertos_customization/Mcu.o
 .ARM.attributes
                0x00000da7       0x34 tmp/obj/gcc/can_freertos_customization/Mcu_Dem_Wrapper.o
 .ARM.attributes
                0x00000ddb       0x34 tmp/obj/gcc/can_freertos_customization/Mcu_Ipw.o
 .ARM.attributes
                0x00000e0f       0x34 tmp/obj/gcc/can_freertos_customization/Power_Ip.o
 .ARM.attributes
                0x00000e43       0x34 tmp/obj/gcc/can_freertos_customization/Power_Ip_CortexA.o
 .ARM.attributes
                0x00000e77       0x34 tmp/obj/gcc/can_freertos_customization/Power_Ip_CortexM7.o
 .ARM.attributes
                0x00000eab       0x34 tmp/obj/gcc/can_freertos_customization/Power_Ip_MC_ME.o
 .ARM.attributes
                0x00000edf       0x34 tmp/obj/gcc/can_freertos_customization/Power_Ip_MC_RGM.o
 .ARM.attributes
                0x00000f13       0x34 tmp/obj/gcc/can_freertos_customization/Power_Ip_MC_RGM_Irq.o
 .ARM.attributes
                0x00000f47       0x34 tmp/obj/gcc/can_freertos_customization/Power_Ip_MSCM.o
 .ARM.attributes
                0x00000f7b       0x34 tmp/obj/gcc/can_freertos_customization/Power_Ip_PMC.o
 .ARM.attributes
                0x00000faf       0x34 tmp/obj/gcc/can_freertos_customization/Power_Ip_Private.o
 .ARM.attributes
                0x00000fe3       0x34 tmp/obj/gcc/can_freertos_customization/Ram_Ip.o
 .ARM.attributes
                0x00001017       0x34 tmp/obj/gcc/can_freertos_customization/Port.o
 .ARM.attributes
                0x0000104b       0x34 tmp/obj/gcc/can_freertos_customization/Port_Ipw.o
 .ARM.attributes
                0x0000107f       0x34 tmp/obj/gcc/can_freertos_customization/Siul2_Port_Ip.o
 .ARM.attributes
                0x000010b3       0x34 tmp/obj/gcc/can_freertos_customization/Dio.o
 .ARM.attributes
                0x000010e7       0x34 tmp/obj/gcc/can_freertos_customization/Dio_Ipw.o
 .ARM.attributes
                0x0000111b       0x34 tmp/obj/gcc/can_freertos_customization/Siul2_Dio_Ip.o
 .ARM.attributes
                0x0000114f       0x34 tmp/obj/gcc/can_freertos_customization/Spi.o
 .ARM.attributes
                0x00001183       0x34 tmp/obj/gcc/can_freertos_customization/Spi_Ip.o
 .ARM.attributes
                0x000011b7       0x34 tmp/obj/gcc/can_freertos_customization/Spi_Ip_Irq.o
 .ARM.attributes
                0x000011eb       0x34 tmp/obj/gcc/can_freertos_customization/Spi_Ipw.o
 .ARM.attributes
                0x0000121f       0x34 tmp/obj/gcc/can_freertos_customization/SchM_Mcu.o
 .ARM.attributes
                0x00001253       0x34 tmp/obj/gcc/can_freertos_customization/SchM_Port.o
 .ARM.attributes
                0x00001287       0x34 tmp/obj/gcc/can_freertos_customization/SchM_Dio.o
 .ARM.attributes
                0x000012bb       0x34 tmp/obj/gcc/can_freertos_customization/SchM_Spi.o
 .ARM.attributes
                0x000012ef       0x34 tmp/obj/gcc/can_freertos_customization/system.o
 .ARM.attributes
                0x00001323       0x34 tmp/obj/gcc/can_freertos_customization/IntCtrl_Ip.o
 .ARM.attributes
                0x00001357       0x34 tmp/obj/gcc/can_freertos_customization/Platform.o
 .ARM.attributes
                0x0000138b       0x34 tmp/obj/gcc/can_freertos_customization/Platform_Ipw.o
 .ARM.attributes
                0x000013bf       0x34 tmp/obj/gcc/can_freertos_customization/System_Ip.o
 .ARM.attributes
                0x000013f3       0x34 tmp/obj/gcc/can_freertos_customization/SchM_Can_43_LLCE.o
 .ARM.attributes
                0x00001427       0x34 tmp/obj/gcc/can_freertos_customization/Can_43_LLCE.o
 .ARM.attributes
                0x0000145b       0x34 tmp/obj/gcc/can_freertos_customization/Can_43_LLCE_IPW.o
 .ARM.attributes
                0x0000148f       0x34 tmp/obj/gcc/can_freertos_customization/Can_43_LLCE_Irq.o
 .ARM.attributes
                0x000014c3       0x34 tmp/obj/gcc/can_freertos_customization/Can_Callback.o
 .ARM.attributes
                0x000014f7       0x34 tmp/obj/gcc/can_freertos_customization/Can_Llce.o
 .ARM.attributes
                0x0000152b       0x34 tmp/obj/gcc/can_freertos_customization/Llce_InterfaceCanConfig.o
 .ARM.attributes
                0x0000155f       0x34 tmp/obj/gcc/can_freertos_customization/Llce_SwFifo.o
 .ARM.attributes
                0x00001593       0x34 tmp/obj/gcc/can_freertos_customization/croutine.o
 .ARM.attributes
                0x000015c7       0x34 tmp/obj/gcc/can_freertos_customization/event_groups.o
 .ARM.attributes
                0x000015fb       0x34 tmp/obj/gcc/can_freertos_customization/list.o
 .ARM.attributes
                0x0000162f       0x34 tmp/obj/gcc/can_freertos_customization/queue.o
 .ARM.attributes
                0x00001663       0x34 tmp/obj/gcc/can_freertos_customization/stream_buffer.o
 .ARM.attributes
                0x00001697       0x34 tmp/obj/gcc/can_freertos_customization/tasks.o
 .ARM.attributes
                0x000016cb       0x34 tmp/obj/gcc/can_freertos_customization/timers.o
 .ARM.attributes
                0x000016ff       0x34 tmp/obj/gcc/can_freertos_customization/port_freertos.o
 .ARM.attributes
                0x00001733       0x34 tmp/obj/gcc/can_freertos_customization/heap_4.o
 .ARM.attributes
                0x00001767       0x34 C:\cygwin64\tmp\ccS5tM1S.o
 .ARM.attributes
                0x0000179b       0x1e c:/compiler/gcc-arm-none-eabi-10.3/bin/../lib/gcc/arm-none-eabi/10.3.1/thumb/v7e-m+fp/hard\libgcc.a(_aeabi_uldivmod.o)
 .ARM.attributes
                0x000017b9       0x34 c:/compiler/gcc-arm-none-eabi-10.3/bin/../lib/gcc/arm-none-eabi/10.3.1/thumb/v7e-m+fp/hard\libgcc.a(_udivmoddi4.o)
 .ARM.attributes
                0x000017ed       0x1e c:/compiler/gcc-arm-none-eabi-10.3/bin/../lib/gcc/arm-none-eabi/10.3.1/thumb/v7e-m+fp/hard\libgcc.a(_dvmd_tls.o)
 .ARM.attributes
                0x0000180b       0x34 c:/compiler/gcc-arm-none-eabi-10.3/bin/../lib/gcc/arm-none-eabi/10.3.1/../../../../arm-none-eabi/lib/thumb/v7e-m+fp/hard\libg_nano.a(lib_a-memcpy-stub.o)
 .ARM.attributes
                0x0000183f       0x34 c:/compiler/gcc-arm-none-eabi-10.3/bin/../lib/gcc/arm-none-eabi/10.3.1/../../../../arm-none-eabi/lib/thumb/v7e-m+fp/hard\libg_nano.a(lib_a-memset.o)
 .ARM.attributes
                0x00001873       0x34 c:/compiler/gcc-arm-none-eabi-10.3/bin/../lib/gcc/arm-none-eabi/10.3.1/../../../../arm-none-eabi/lib/thumb/v7e-m+fp/hard\libg_nano.a(lib_a-sprintf.o)
 .ARM.attributes
                0x000018a7       0x34 c:/compiler/gcc-arm-none-eabi-10.3/bin/../lib/gcc/arm-none-eabi/10.3.1/../../../../arm-none-eabi/lib/thumb/v7e-m+fp/hard\libg_nano.a(lib_a-strcpy.o)
 .ARM.attributes
                0x000018db       0x17 c:/compiler/gcc-arm-none-eabi-10.3/bin/../lib/gcc/arm-none-eabi/10.3.1/../../../../arm-none-eabi/lib/thumb/v7e-m+fp/hard\libg_nano.a(lib_a-strlen.o)
 .ARM.attributes
                0x000018f2       0x34 c:/compiler/gcc-arm-none-eabi-10.3/bin/../lib/gcc/arm-none-eabi/10.3.1/../../../../arm-none-eabi/lib/thumb/v7e-m+fp/hard\libg_nano.a(lib_a-impure.o)
 .ARM.attributes
                0x00001926       0x34 c:/compiler/gcc-arm-none-eabi-10.3/bin/../lib/gcc/arm-none-eabi/10.3.1/../../../../arm-none-eabi/lib/thumb/v7e-m+fp/hard\libg_nano.a(lib_a-nano-svfprintf.o)
 .ARM.attributes
                0x0000195a       0x34 c:/compiler/gcc-arm-none-eabi-10.3/bin/../lib/gcc/arm-none-eabi/10.3.1/../../../../arm-none-eabi/lib/thumb/v7e-m+fp/hard\libg_nano.a(lib_a-nano-vfprintf_i.o)
 .ARM.attributes
                0x0000198e       0x1c c:/compiler/gcc-arm-none-eabi-10.3/bin/../lib/gcc/arm-none-eabi/10.3.1/../../../../arm-none-eabi/lib/thumb/v7e-m+fp/hard\libg_nano.a(lib_a-memchr.o)
 .ARM.attributes
                0x000019aa       0x34 c:/compiler/gcc-arm-none-eabi-10.3/bin/../lib/gcc/arm-none-eabi/10.3.1/../../../../arm-none-eabi/lib/thumb/v7e-m+fp/hard\libg_nano.a(lib_a-memmove.o)
 .ARM.attributes
                0x000019de       0x34 c:/compiler/gcc-arm-none-eabi-10.3/bin/../lib/gcc/arm-none-eabi/10.3.1/../../../../arm-none-eabi/lib/thumb/v7e-m+fp/hard\libg_nano.a(lib_a-nano-freer.o)
 .ARM.attributes
                0x00001a12       0x34 c:/compiler/gcc-arm-none-eabi-10.3/bin/../lib/gcc/arm-none-eabi/10.3.1/../../../../arm-none-eabi/lib/thumb/v7e-m+fp/hard\libg_nano.a(lib_a-nano-mallocr.o)
 .ARM.attributes
                0x00001a46       0x34 c:/compiler/gcc-arm-none-eabi-10.3/bin/../lib/gcc/arm-none-eabi/10.3.1/../../../../arm-none-eabi/lib/thumb/v7e-m+fp/hard\libg_nano.a(lib_a-nano-reallocr.o)
 .ARM.attributes
                0x00001a7a       0x34 c:/compiler/gcc-arm-none-eabi-10.3/bin/../lib/gcc/arm-none-eabi/10.3.1/../../../../arm-none-eabi/lib/thumb/v7e-m+fp/hard\libg_nano.a(lib_a-sbrkr.o)
 .ARM.attributes
                0x00001aae       0x34 c:/compiler/gcc-arm-none-eabi-10.3/bin/../lib/gcc/arm-none-eabi/10.3.1/../../../../arm-none-eabi/lib/thumb/v7e-m+fp/hard\libg_nano.a(lib_a-mlock.o)
 .ARM.attributes
                0x00001ae2       0x34 c:/compiler/gcc-arm-none-eabi-10.3/bin/../lib/gcc/arm-none-eabi/10.3.1/../../../../arm-none-eabi/lib/thumb/v7e-m+fp/hard\libg_nano.a(lib_a-nano-msizer.o)
 .ARM.attributes
                0x00001b16       0x34 c:/compiler/gcc-arm-none-eabi-10.3/bin/../lib/gcc/arm-none-eabi/10.3.1/../../../../arm-none-eabi/lib/thumb/v7e-m+fp/hard\libg_nano.a(lib_a-reent.o)
 .ARM.attributes
                0x00001b4a       0x34 c:/compiler/gcc-arm-none-eabi-10.3/bin/../lib/gcc/arm-none-eabi/10.3.1/../../../../arm-none-eabi/lib/thumb/v7e-m+fp/hard\libg_nano.a(lib_a-lock.o)
 .ARM.attributes
                0x00001b7e       0x34 c:/compiler/gcc-arm-none-eabi-10.3/bin/../lib/gcc/arm-none-eabi/10.3.1/../../../../arm-none-eabi/lib/thumb/v7e-m+fp/hard\libnosys.a(sbrk.o)

.comment        0x00000000       0x49
 .comment       0x00000000       0x49 tmp/obj/gcc/can_freertos_customization/nvic.o
                                 0x4a (size before relaxing)
 .comment       0x00000049       0x4a tmp/obj/gcc/can_freertos_customization/exceptions.o
 .comment       0x00000049       0x4a tmp/obj/gcc/can_freertos_customization/Platform_Init.o
 .comment       0x00000049       0x4a tmp/obj/gcc/can_freertos_customization/can_common.o
 .comment       0x00000049       0x4a tmp/obj/gcc/can_freertos_customization/stubs.o
 .comment       0x00000049       0x4a tmp/obj/gcc/can_freertos_customization/dte.o
 .comment       0x00000049       0x4a tmp/obj/gcc/can_freertos_customization/frpe.o
 .comment       0x00000049       0x4a tmp/obj/gcc/can_freertos_customization/ppe_rx.o
 .comment       0x00000049       0x4a tmp/obj/gcc/can_freertos_customization/ppe_tx.o
 .comment       0x00000049       0x4a tmp/obj/gcc/can_freertos_customization/Llce_Firmware_Load.o
 .comment       0x00000049       0x4a tmp/obj/gcc/can_freertos_customization/main.o
 .comment       0x00000049       0x4a tmp/obj/gcc/can_freertos_customization/TIC12400Drv.o
 .comment       0x00000049       0x4a tmp/obj/gcc/can_freertos_customization/Can_43_LLCE_AFcfg.o
 .comment       0x00000049       0x4a tmp/obj/gcc/can_freertos_customization/Can_43_LLCE_Cfg.o
 .comment       0x00000049       0x4a tmp/obj/gcc/can_freertos_customization/Can_43_LLCE_VS_0_PBcfg.o
 .comment       0x00000049       0x4a tmp/obj/gcc/can_freertos_customization/Clock_Ip_Cfg.o
 .comment       0x00000049       0x4a tmp/obj/gcc/can_freertos_customization/Clock_Ip_VS_0_PBcfg.o
 .comment       0x00000049       0x4a tmp/obj/gcc/can_freertos_customization/Dio_Cfg.o
 .comment       0x00000049       0x4a tmp/obj/gcc/can_freertos_customization/IntCtrl_Ip_Cfg.o
 .comment       0x00000049       0x4a tmp/obj/gcc/can_freertos_customization/Mcu_Cfg.o
 .comment       0x00000049       0x4a tmp/obj/gcc/can_freertos_customization/Mcu_VS_0_PBcfg.o
 .comment       0x00000049       0x4a tmp/obj/gcc/can_freertos_customization/OsIf_Cfg.o
 .comment       0x00000049       0x4a tmp/obj/gcc/can_freertos_customization/Platform_Cfg.o
 .comment       0x00000049       0x4a tmp/obj/gcc/can_freertos_customization/Platform_Ipw_Cfg.o
 .comment       0x00000049       0x4a tmp/obj/gcc/can_freertos_customization/Port_Cfg.o
 .comment       0x00000049       0x4a tmp/obj/gcc/can_freertos_customization/Port_VS_0_PBcfg.o
 .comment       0x00000049       0x4a tmp/obj/gcc/can_freertos_customization/Power_Ip_Cfg.o
 .comment       0x00000049       0x4a tmp/obj/gcc/can_freertos_customization/Power_Ip_VS_0_PBcfg.o
 .comment       0x00000049       0x4a tmp/obj/gcc/can_freertos_customization/Ram_Ip_Cfg.o
 .comment       0x00000049       0x4a tmp/obj/gcc/can_freertos_customization/Ram_Ip_VS_0_PBcfg.o
 .comment       0x00000049       0x4a tmp/obj/gcc/can_freertos_customization/Siul2_Port_Ip_VS_0_PBcfg.o
 .comment       0x00000049       0x4a tmp/obj/gcc/can_freertos_customization/Spi_Ip_VS_0_PBcfg.o
 .comment       0x00000049       0x4a tmp/obj/gcc/can_freertos_customization/Spi_Ipw_VS_0_PBcfg.o
 .comment       0x00000049       0x4a tmp/obj/gcc/can_freertos_customization/Spi_VS_0_PBcfg.o
 .comment       0x00000049       0x4a tmp/obj/gcc/can_freertos_customization/OsIf_Interrupts.o
 .comment       0x00000049       0x4a tmp/obj/gcc/can_freertos_customization/OsIf_Timer.o
 .comment       0x00000049       0x4a tmp/obj/gcc/can_freertos_customization/OsIf_Timer_System.o
 .comment       0x00000049       0x4a tmp/obj/gcc/can_freertos_customization/OsIf_Timer_System_Internal_GenericTimer.o
 .comment       0x00000049       0x4a tmp/obj/gcc/can_freertos_customization/OsIf_Timer_System_Internal_Systick.o
 .comment       0x00000049       0x4a tmp/obj/gcc/can_freertos_customization/Det.o
 .comment       0x00000049       0x4a tmp/obj/gcc/can_freertos_customization/Det_stub.o
 .comment       0x00000049       0x4a tmp/obj/gcc/can_freertos_customization/Dem.o
 .comment       0x00000049       0x4a tmp/obj/gcc/can_freertos_customization/Dem_stub.o
 .comment       0x00000049       0x4a tmp/obj/gcc/can_freertos_customization/EcuM.o
 .comment       0x00000049       0x4a tmp/obj/gcc/can_freertos_customization/Clock_Ip.o
 .comment       0x00000049       0x4a tmp/obj/gcc/can_freertos_customization/Clock_Ip_Data.o
 .comment       0x00000049       0x4a tmp/obj/gcc/can_freertos_customization/Clock_Ip_Data1.o
 .comment       0x00000049       0x4a tmp/obj/gcc/can_freertos_customization/Clock_Ip_Data2.o
 .comment       0x00000049       0x4a tmp/obj/gcc/can_freertos_customization/Clock_Ip_Divider.o
 .comment       0x00000049       0x4a tmp/obj/gcc/can_freertos_customization/Clock_Ip_DividerTrigger.o
 .comment       0x00000049       0x4a tmp/obj/gcc/can_freertos_customization/Clock_Ip_ExtOsc.o
 .comment       0x00000049       0x4a tmp/obj/gcc/can_freertos_customization/Clock_Ip_FracDiv.o
 .comment       0x00000049       0x4a tmp/obj/gcc/can_freertos_customization/Clock_Ip_Frequency.o
 .comment       0x00000049       0x4a tmp/obj/gcc/can_freertos_customization/Clock_Ip_Frequency1.o
 .comment       0x00000049       0x4a tmp/obj/gcc/can_freertos_customization/Clock_Ip_Frequency2.o
 .comment       0x00000049       0x4a tmp/obj/gcc/can_freertos_customization/Clock_Ip_Gate.o
 .comment       0x00000049       0x4a tmp/obj/gcc/can_freertos_customization/Clock_Ip_IntOsc.o
 .comment       0x00000049       0x4a tmp/obj/gcc/can_freertos_customization/Clock_Ip_Irq.o
 .comment       0x00000049       0x4a tmp/obj/gcc/can_freertos_customization/Clock_Ip_Monitor.o
 .comment       0x00000049       0x4a tmp/obj/gcc/can_freertos_customization/Clock_Ip_Pll.o
 .comment       0x00000049       0x4a tmp/obj/gcc/can_freertos_customization/Clock_Ip_ProgFreqSwitch.o
 .comment       0x00000049       0x4a tmp/obj/gcc/can_freertos_customization/Clock_Ip_Selector.o
 .comment       0x00000049       0x4a tmp/obj/gcc/can_freertos_customization/Clock_Ip_Specific.o
 .comment       0x00000049       0x4a tmp/obj/gcc/can_freertos_customization/Clock_Ip_Specific1.o
 .comment       0x00000049       0x4a tmp/obj/gcc/can_freertos_customization/Clock_Ip_Specific2.o
 .comment       0x00000049       0x4a tmp/obj/gcc/can_freertos_customization/Mcu.o
 .comment       0x00000049       0x4a tmp/obj/gcc/can_freertos_customization/Mcu_Dem_Wrapper.o
 .comment       0x00000049       0x4a tmp/obj/gcc/can_freertos_customization/Mcu_Ipw.o
 .comment       0x00000049       0x4a tmp/obj/gcc/can_freertos_customization/Power_Ip.o
 .comment       0x00000049       0x4a tmp/obj/gcc/can_freertos_customization/Power_Ip_CortexA.o
 .comment       0x00000049       0x4a tmp/obj/gcc/can_freertos_customization/Power_Ip_CortexM7.o
 .comment       0x00000049       0x4a tmp/obj/gcc/can_freertos_customization/Power_Ip_MC_ME.o
 .comment       0x00000049       0x4a tmp/obj/gcc/can_freertos_customization/Power_Ip_MC_RGM.o
 .comment       0x00000049       0x4a tmp/obj/gcc/can_freertos_customization/Power_Ip_MC_RGM_Irq.o
 .comment       0x00000049       0x4a tmp/obj/gcc/can_freertos_customization/Power_Ip_MSCM.o
 .comment       0x00000049       0x4a tmp/obj/gcc/can_freertos_customization/Power_Ip_PMC.o
 .comment       0x00000049       0x4a tmp/obj/gcc/can_freertos_customization/Power_Ip_Private.o
 .comment       0x00000049       0x4a tmp/obj/gcc/can_freertos_customization/Ram_Ip.o
 .comment       0x00000049       0x4a tmp/obj/gcc/can_freertos_customization/Port.o
 .comment       0x00000049       0x4a tmp/obj/gcc/can_freertos_customization/Port_Ipw.o
 .comment       0x00000049       0x4a tmp/obj/gcc/can_freertos_customization/Siul2_Port_Ip.o
 .comment       0x00000049       0x4a tmp/obj/gcc/can_freertos_customization/Dio.o
 .comment       0x00000049       0x4a tmp/obj/gcc/can_freertos_customization/Dio_Ipw.o
 .comment       0x00000049       0x4a tmp/obj/gcc/can_freertos_customization/Siul2_Dio_Ip.o
 .comment       0x00000049       0x4a tmp/obj/gcc/can_freertos_customization/Spi.o
 .comment       0x00000049       0x4a tmp/obj/gcc/can_freertos_customization/Spi_Ip.o
 .comment       0x00000049       0x4a tmp/obj/gcc/can_freertos_customization/Spi_Ip_Irq.o
 .comment       0x00000049       0x4a tmp/obj/gcc/can_freertos_customization/Spi_Ipw.o
 .comment       0x00000049       0x4a tmp/obj/gcc/can_freertos_customization/SchM_Mcu.o
 .comment       0x00000049       0x4a tmp/obj/gcc/can_freertos_customization/SchM_Port.o
 .comment       0x00000049       0x4a tmp/obj/gcc/can_freertos_customization/SchM_Dio.o
 .comment       0x00000049       0x4a tmp/obj/gcc/can_freertos_customization/SchM_Spi.o
 .comment       0x00000049       0x4a tmp/obj/gcc/can_freertos_customization/system.o
 .comment       0x00000049       0x4a tmp/obj/gcc/can_freertos_customization/IntCtrl_Ip.o
 .comment       0x00000049       0x4a tmp/obj/gcc/can_freertos_customization/Platform.o
 .comment       0x00000049       0x4a tmp/obj/gcc/can_freertos_customization/Platform_Ipw.o
 .comment       0x00000049       0x4a tmp/obj/gcc/can_freertos_customization/System_Ip.o
 .comment       0x00000049       0x4a tmp/obj/gcc/can_freertos_customization/SchM_Can_43_LLCE.o
 .comment       0x00000049       0x4a tmp/obj/gcc/can_freertos_customization/Can_43_LLCE.o
 .comment       0x00000049       0x4a tmp/obj/gcc/can_freertos_customization/Can_43_LLCE_IPW.o
 .comment       0x00000049       0x4a tmp/obj/gcc/can_freertos_customization/Can_43_LLCE_Irq.o
 .comment       0x00000049       0x4a tmp/obj/gcc/can_freertos_customization/Can_Callback.o
 .comment       0x00000049       0x4a tmp/obj/gcc/can_freertos_customization/Can_Llce.o
 .comment       0x00000049       0x4a tmp/obj/gcc/can_freertos_customization/Llce_InterfaceCanConfig.o
 .comment       0x00000049       0x4a tmp/obj/gcc/can_freertos_customization/Llce_SwFifo.o
 .comment       0x00000049       0x4a tmp/obj/gcc/can_freertos_customization/croutine.o
 .comment       0x00000049       0x4a tmp/obj/gcc/can_freertos_customization/event_groups.o
 .comment       0x00000049       0x4a tmp/obj/gcc/can_freertos_customization/list.o
 .comment       0x00000049       0x4a tmp/obj/gcc/can_freertos_customization/queue.o
 .comment       0x00000049       0x4a tmp/obj/gcc/can_freertos_customization/stream_buffer.o
 .comment       0x00000049       0x4a tmp/obj/gcc/can_freertos_customization/tasks.o
 .comment       0x00000049       0x4a tmp/obj/gcc/can_freertos_customization/timers.o
 .comment       0x00000049       0x4a tmp/obj/gcc/can_freertos_customization/port_freertos.o
 .comment       0x00000049       0x4a tmp/obj/gcc/can_freertos_customization/heap_4.o
 .comment       0x00000049       0x4a C:\cygwin64\tmp\ccS5tM1S.o

.debug_line     0x00000000    0x1cc6e
 .debug_line    0x00000000      0x170 C:\cygwin64\tmp\ccklK50t.o
 .debug_line    0x00000170      0x266 tmp/obj/gcc/can_freertos_customization/nvic.o
 .debug_line    0x000003d6      0x17a tmp/obj/gcc/can_freertos_customization/exceptions.o
 .debug_line    0x00000550      0x205 tmp/obj/gcc/can_freertos_customization/Platform_Init.o
 .debug_line    0x00000755      0x2c4 tmp/obj/gcc/can_freertos_customization/can_common.o
 .debug_line    0x00000a19      0x3bc tmp/obj/gcc/can_freertos_customization/stubs.o
 .debug_line    0x00000dd5       0x57 tmp/obj/gcc/can_freertos_customization/dte.o
 .debug_line    0x00000e2c       0x58 tmp/obj/gcc/can_freertos_customization/frpe.o
 .debug_line    0x00000e84       0x5a tmp/obj/gcc/can_freertos_customization/ppe_rx.o
 .debug_line    0x00000ede       0x5a tmp/obj/gcc/can_freertos_customization/ppe_tx.o
 .debug_line    0x00000f38      0x3df tmp/obj/gcc/can_freertos_customization/Llce_Firmware_Load.o
 .debug_line    0x00001317      0x575 tmp/obj/gcc/can_freertos_customization/main.o
 .debug_line    0x0000188c       0x1d tmp/obj/gcc/can_freertos_customization/TIC12400Drv.o
 .debug_line    0x000018a9      0x1c6 tmp/obj/gcc/can_freertos_customization/Can_43_LLCE_AFcfg.o
 .debug_line    0x00001a6f      0x1a2 tmp/obj/gcc/can_freertos_customization/Can_43_LLCE_Cfg.o
 .debug_line    0x00001c11      0x223 tmp/obj/gcc/can_freertos_customization/Can_43_LLCE_VS_0_PBcfg.o
 .debug_line    0x00001e34       0x1d tmp/obj/gcc/can_freertos_customization/Clock_Ip_Cfg.o
 .debug_line    0x00001e51      0x1ce tmp/obj/gcc/can_freertos_customization/Clock_Ip_VS_0_PBcfg.o
 .debug_line    0x0000201f      0x15b tmp/obj/gcc/can_freertos_customization/Dio_Cfg.o
 .debug_line    0x0000217a      0x22d tmp/obj/gcc/can_freertos_customization/IntCtrl_Ip_Cfg.o
 .debug_line    0x000023a7       0x1d tmp/obj/gcc/can_freertos_customization/Mcu_Cfg.o
 .debug_line    0x000023c4      0x26c tmp/obj/gcc/can_freertos_customization/Mcu_VS_0_PBcfg.o
 .debug_line    0x00002630      0x1ae tmp/obj/gcc/can_freertos_customization/OsIf_Cfg.o
 .debug_line    0x000027de      0x279 tmp/obj/gcc/can_freertos_customization/Platform_Cfg.o
 .debug_line    0x00002a57      0x27a tmp/obj/gcc/can_freertos_customization/Platform_Ipw_Cfg.o
 .debug_line    0x00002cd1      0x15d tmp/obj/gcc/can_freertos_customization/Port_Cfg.o
 .debug_line    0x00002e2e      0x237 tmp/obj/gcc/can_freertos_customization/Port_VS_0_PBcfg.o
 .debug_line    0x00003065       0x1d tmp/obj/gcc/can_freertos_customization/Power_Ip_Cfg.o
 .debug_line    0x00003082      0x21b tmp/obj/gcc/can_freertos_customization/Power_Ip_VS_0_PBcfg.o
 .debug_line    0x0000329d       0x1d tmp/obj/gcc/can_freertos_customization/Ram_Ip_Cfg.o
 .debug_line    0x000032ba       0x1d tmp/obj/gcc/can_freertos_customization/Ram_Ip_VS_0_PBcfg.o
 .debug_line    0x000032d7      0x232 tmp/obj/gcc/can_freertos_customization/Siul2_Port_Ip_VS_0_PBcfg.o
 .debug_line    0x00003509      0x1bd tmp/obj/gcc/can_freertos_customization/Spi_Ip_VS_0_PBcfg.o
 .debug_line    0x000036c6      0x1e9 tmp/obj/gcc/can_freertos_customization/Spi_Ipw_VS_0_PBcfg.o
 .debug_line    0x000038af      0x1e2 tmp/obj/gcc/can_freertos_customization/Spi_VS_0_PBcfg.o
 .debug_line    0x00003a91       0x1d tmp/obj/gcc/can_freertos_customization/OsIf_Interrupts.o
 .debug_line    0x00003aae      0x2e5 tmp/obj/gcc/can_freertos_customization/OsIf_Timer.o
 .debug_line    0x00003d93      0x279 tmp/obj/gcc/can_freertos_customization/OsIf_Timer_System.o
 .debug_line    0x0000400c       0x1d tmp/obj/gcc/can_freertos_customization/OsIf_Timer_System_Internal_GenericTimer.o
 .debug_line    0x00004029      0x24c tmp/obj/gcc/can_freertos_customization/OsIf_Timer_System_Internal_Systick.o
 .debug_line    0x00004275      0x2a5 tmp/obj/gcc/can_freertos_customization/Det.o
 .debug_line    0x0000451a      0x486 tmp/obj/gcc/can_freertos_customization/Det_stub.o
 .debug_line    0x000049a0      0x32e tmp/obj/gcc/can_freertos_customization/Dem.o
 .debug_line    0x00004cce      0x492 tmp/obj/gcc/can_freertos_customization/Dem_stub.o
 .debug_line    0x00005160      0x202 tmp/obj/gcc/can_freertos_customization/EcuM.o
 .debug_line    0x00005362      0xbc5 tmp/obj/gcc/can_freertos_customization/Clock_Ip.o
 .debug_line    0x00005f27      0x2d6 tmp/obj/gcc/can_freertos_customization/Clock_Ip_Data.o
 .debug_line    0x000061fd       0x1d tmp/obj/gcc/can_freertos_customization/Clock_Ip_Data1.o
 .debug_line    0x0000621a       0x1d tmp/obj/gcc/can_freertos_customization/Clock_Ip_Data2.o
 .debug_line    0x00006237      0x402 tmp/obj/gcc/can_freertos_customization/Clock_Ip_Divider.o
 .debug_line    0x00006639      0x101 tmp/obj/gcc/can_freertos_customization/Clock_Ip_DividerTrigger.o
 .debug_line    0x0000673a      0x34f tmp/obj/gcc/can_freertos_customization/Clock_Ip_ExtOsc.o
 .debug_line    0x00006a89      0x37e tmp/obj/gcc/can_freertos_customization/Clock_Ip_FracDiv.o
 .debug_line    0x00006e07       0x1d tmp/obj/gcc/can_freertos_customization/Clock_Ip_Frequency.o
 .debug_line    0x00006e24       0x1d tmp/obj/gcc/can_freertos_customization/Clock_Ip_Frequency1.o
 .debug_line    0x00006e41       0x1d tmp/obj/gcc/can_freertos_customization/Clock_Ip_Frequency2.o
 .debug_line    0x00006e5e      0x344 tmp/obj/gcc/can_freertos_customization/Clock_Ip_Gate.o
 .debug_line    0x000071a2      0x1f9 tmp/obj/gcc/can_freertos_customization/Clock_Ip_IntOsc.o
 .debug_line    0x0000739b       0x8a tmp/obj/gcc/can_freertos_customization/Clock_Ip_Irq.o
 .debug_line    0x00007425      0x517 tmp/obj/gcc/can_freertos_customization/Clock_Ip_Monitor.o
 .debug_line    0x0000793c      0x4ec tmp/obj/gcc/can_freertos_customization/Clock_Ip_Pll.o
 .debug_line    0x00007e28      0x365 tmp/obj/gcc/can_freertos_customization/Clock_Ip_ProgFreqSwitch.o
 .debug_line    0x0000818d      0x7a2 tmp/obj/gcc/can_freertos_customization/Clock_Ip_Selector.o
 .debug_line    0x0000892f      0x515 tmp/obj/gcc/can_freertos_customization/Clock_Ip_Specific.o
 .debug_line    0x00008e44       0x1d tmp/obj/gcc/can_freertos_customization/Clock_Ip_Specific1.o
 .debug_line    0x00008e61       0x1d tmp/obj/gcc/can_freertos_customization/Clock_Ip_Specific2.o
 .debug_line    0x00008e7e      0x43b tmp/obj/gcc/can_freertos_customization/Mcu.o
 .debug_line    0x000092b9       0x1d tmp/obj/gcc/can_freertos_customization/Mcu_Dem_Wrapper.o
 .debug_line    0x000092d6      0x334 tmp/obj/gcc/can_freertos_customization/Mcu_Ipw.o
 .debug_line    0x0000960a      0x322 tmp/obj/gcc/can_freertos_customization/Power_Ip.o
 .debug_line    0x0000992c       0x1d tmp/obj/gcc/can_freertos_customization/Power_Ip_CortexA.o
 .debug_line    0x00009949      0x23b tmp/obj/gcc/can_freertos_customization/Power_Ip_CortexM7.o
 .debug_line    0x00009b84      0x79e tmp/obj/gcc/can_freertos_customization/Power_Ip_MC_ME.o
 .debug_line    0x0000a322      0x861 tmp/obj/gcc/can_freertos_customization/Power_Ip_MC_RGM.o
 .debug_line    0x0000ab83       0x1d tmp/obj/gcc/can_freertos_customization/Power_Ip_MC_RGM_Irq.o
 .debug_line    0x0000aba0      0x245 tmp/obj/gcc/can_freertos_customization/Power_Ip_MSCM.o
 .debug_line    0x0000ade5      0x235 tmp/obj/gcc/can_freertos_customization/Power_Ip_PMC.o
 .debug_line    0x0000b01a      0x294 tmp/obj/gcc/can_freertos_customization/Power_Ip_Private.o
 .debug_line    0x0000b2ae      0x2b8 tmp/obj/gcc/can_freertos_customization/Ram_Ip.o
 .debug_line    0x0000b566      0x318 tmp/obj/gcc/can_freertos_customization/Port.o
 .debug_line    0x0000b87e      0x67d tmp/obj/gcc/can_freertos_customization/Port_Ipw.o
 .debug_line    0x0000befb      0x66a tmp/obj/gcc/can_freertos_customization/Siul2_Port_Ip.o
 .debug_line    0x0000c565      0x20f tmp/obj/gcc/can_freertos_customization/Dio.o
 .debug_line    0x0000c774      0x360 tmp/obj/gcc/can_freertos_customization/Dio_Ipw.o
 .debug_line    0x0000cad4      0x3d2 tmp/obj/gcc/can_freertos_customization/Siul2_Dio_Ip.o
 .debug_line    0x0000cea6     0x1266 tmp/obj/gcc/can_freertos_customization/Spi.o
 .debug_line    0x0000e10c      0xb6e tmp/obj/gcc/can_freertos_customization/Spi_Ip.o
 .debug_line    0x0000ec7a       0x88 tmp/obj/gcc/can_freertos_customization/Spi_Ip_Irq.o
 .debug_line    0x0000ed02      0x5f1 tmp/obj/gcc/can_freertos_customization/Spi_Ipw.o
 .debug_line    0x0000f2f3      0x2c2 tmp/obj/gcc/can_freertos_customization/SchM_Mcu.o
 .debug_line    0x0000f5b5      0xd81 tmp/obj/gcc/can_freertos_customization/SchM_Port.o
 .debug_line    0x00010336      0x254 tmp/obj/gcc/can_freertos_customization/SchM_Dio.o
 .debug_line    0x0001058a      0x9a2 tmp/obj/gcc/can_freertos_customization/SchM_Spi.o
 .debug_line    0x00010f2c      0x34d tmp/obj/gcc/can_freertos_customization/system.o
 .debug_line    0x00011279      0x6e4 tmp/obj/gcc/can_freertos_customization/IntCtrl_Ip.o
 .debug_line    0x0001195d      0x446 tmp/obj/gcc/can_freertos_customization/Platform.o
 .debug_line    0x00011da3      0x3a5 tmp/obj/gcc/can_freertos_customization/Platform_Ipw.o
 .debug_line    0x00012148      0x2c4 tmp/obj/gcc/can_freertos_customization/System_Ip.o
 .debug_line    0x0001240c     0x1d6e tmp/obj/gcc/can_freertos_customization/SchM_Can_43_LLCE.o
 .debug_line    0x0001417a      0x9ad tmp/obj/gcc/can_freertos_customization/Can_43_LLCE.o
 .debug_line    0x00014b27      0x515 tmp/obj/gcc/can_freertos_customization/Can_43_LLCE_IPW.o
 .debug_line    0x0001503c      0x396 tmp/obj/gcc/can_freertos_customization/Can_43_LLCE_Irq.o
 .debug_line    0x000153d2      0x3a6 tmp/obj/gcc/can_freertos_customization/Can_Callback.o
 .debug_line    0x00015778     0x1a7a tmp/obj/gcc/can_freertos_customization/Can_Llce.o
 .debug_line    0x000171f2      0x3b8 tmp/obj/gcc/can_freertos_customization/Llce_InterfaceCanConfig.o
 .debug_line    0x000175aa       0x1d tmp/obj/gcc/can_freertos_customization/Llce_SwFifo.o
 .debug_line    0x000175c7       0x1d tmp/obj/gcc/can_freertos_customization/croutine.o
 .debug_line    0x000175e4      0x601 tmp/obj/gcc/can_freertos_customization/event_groups.o
 .debug_line    0x00017be5      0x252 tmp/obj/gcc/can_freertos_customization/list.o
 .debug_line    0x00017e37     0x1272 tmp/obj/gcc/can_freertos_customization/queue.o
 .debug_line    0x000190a9      0xaf2 tmp/obj/gcc/can_freertos_customization/stream_buffer.o
 .debug_line    0x00019b9b     0x1d45 tmp/obj/gcc/can_freertos_customization/tasks.o
 .debug_line    0x0001b8e0      0x807 tmp/obj/gcc/can_freertos_customization/timers.o
 .debug_line    0x0001c0e7      0x441 tmp/obj/gcc/can_freertos_customization/port_freertos.o
 .debug_line    0x0001c528      0x4f5 tmp/obj/gcc/can_freertos_customization/heap_4.o
 .debug_line    0x0001ca1d      0x251 C:\cygwin64\tmp\ccS5tM1S.o

.debug_info     0x00000000    0x49e77
 .debug_info    0x00000000       0x22 C:\cygwin64\tmp\ccklK50t.o
 .debug_info    0x00000022      0x810 tmp/obj/gcc/can_freertos_customization/nvic.o
 .debug_info    0x00000832      0x172 tmp/obj/gcc/can_freertos_customization/exceptions.o
 .debug_info    0x000009a4      0x151 tmp/obj/gcc/can_freertos_customization/Platform_Init.o
 .debug_info    0x00000af5      0x2ca tmp/obj/gcc/can_freertos_customization/can_common.o
 .debug_info    0x00000dbf      0x993 tmp/obj/gcc/can_freertos_customization/stubs.o
 .debug_info    0x00001752       0x64 tmp/obj/gcc/can_freertos_customization/dte.o
 .debug_info    0x000017b6       0x64 tmp/obj/gcc/can_freertos_customization/frpe.o
 .debug_info    0x0000181a       0x64 tmp/obj/gcc/can_freertos_customization/ppe_rx.o
 .debug_info    0x0000187e       0x64 tmp/obj/gcc/can_freertos_customization/ppe_tx.o
 .debug_info    0x000018e2      0x6a9 tmp/obj/gcc/can_freertos_customization/Llce_Firmware_Load.o
 .debug_info    0x00001f8b     0x1532 tmp/obj/gcc/can_freertos_customization/main.o
 .debug_info    0x000034bd       0x64 tmp/obj/gcc/can_freertos_customization/TIC12400Drv.o
 .debug_info    0x00003521      0x33e tmp/obj/gcc/can_freertos_customization/Can_43_LLCE_AFcfg.o
 .debug_info    0x0000385f      0x146 tmp/obj/gcc/can_freertos_customization/Can_43_LLCE_Cfg.o
 .debug_info    0x000039a5      0xe83 tmp/obj/gcc/can_freertos_customization/Can_43_LLCE_VS_0_PBcfg.o
 .debug_info    0x00004828       0x80 tmp/obj/gcc/can_freertos_customization/Clock_Ip_Cfg.o
 .debug_info    0x000048a8      0xdc5 tmp/obj/gcc/can_freertos_customization/Clock_Ip_VS_0_PBcfg.o
 .debug_info    0x0000566d      0x2f9 tmp/obj/gcc/can_freertos_customization/Dio_Cfg.o
 .debug_info    0x00005966      0x757 tmp/obj/gcc/can_freertos_customization/IntCtrl_Ip_Cfg.o
 .debug_info    0x000060bd       0x80 tmp/obj/gcc/can_freertos_customization/Mcu_Cfg.o
 .debug_info    0x0000613d     0x13f6 tmp/obj/gcc/can_freertos_customization/Mcu_VS_0_PBcfg.o
 .debug_info    0x00007533      0x122 tmp/obj/gcc/can_freertos_customization/OsIf_Cfg.o
 .debug_info    0x00007655      0x8b6 tmp/obj/gcc/can_freertos_customization/Platform_Cfg.o
 .debug_info    0x00007f0b      0x864 tmp/obj/gcc/can_freertos_customization/Platform_Ipw_Cfg.o
 .debug_info    0x0000876f      0x406 tmp/obj/gcc/can_freertos_customization/Port_Cfg.o
 .debug_info    0x00008b75     0x21a5 tmp/obj/gcc/can_freertos_customization/Port_VS_0_PBcfg.o
 .debug_info    0x0000ad1a       0x80 tmp/obj/gcc/can_freertos_customization/Power_Ip_Cfg.o
 .debug_info    0x0000ad9a      0x782 tmp/obj/gcc/can_freertos_customization/Power_Ip_VS_0_PBcfg.o
 .debug_info    0x0000b51c       0x80 tmp/obj/gcc/can_freertos_customization/Ram_Ip_Cfg.o
 .debug_info    0x0000b59c       0x80 tmp/obj/gcc/can_freertos_customization/Ram_Ip_VS_0_PBcfg.o
 .debug_info    0x0000b61c     0x1e0d tmp/obj/gcc/can_freertos_customization/Siul2_Port_Ip_VS_0_PBcfg.o
 .debug_info    0x0000d429      0x27f tmp/obj/gcc/can_freertos_customization/Spi_Ip_VS_0_PBcfg.o
 .debug_info    0x0000d6a8      0x45b tmp/obj/gcc/can_freertos_customization/Spi_Ipw_VS_0_PBcfg.o
 .debug_info    0x0000db03      0xb88 tmp/obj/gcc/can_freertos_customization/Spi_VS_0_PBcfg.o
 .debug_info    0x0000e68b       0x80 tmp/obj/gcc/can_freertos_customization/OsIf_Interrupts.o
 .debug_info    0x0000e70b      0x2e4 tmp/obj/gcc/can_freertos_customization/OsIf_Timer.o
 .debug_info    0x0000e9ef      0x2c3 tmp/obj/gcc/can_freertos_customization/OsIf_Timer_System.o
 .debug_info    0x0000ecb2       0x80 tmp/obj/gcc/can_freertos_customization/OsIf_Timer_System_Internal_GenericTimer.o
 .debug_info    0x0000ed32      0x1a6 tmp/obj/gcc/can_freertos_customization/OsIf_Timer_System_Internal_Systick.o
 .debug_info    0x0000eed8      0x3ea tmp/obj/gcc/can_freertos_customization/Det.o
 .debug_info    0x0000f2c2      0x3f0 tmp/obj/gcc/can_freertos_customization/Det_stub.o
 .debug_info    0x0000f6b2      0x2ec tmp/obj/gcc/can_freertos_customization/Dem.o
 .debug_info    0x0000f99e      0x45c tmp/obj/gcc/can_freertos_customization/Dem_stub.o
 .debug_info    0x0000fdfa      0x155 tmp/obj/gcc/can_freertos_customization/EcuM.o
 .debug_info    0x0000ff4f     0x1d3c tmp/obj/gcc/can_freertos_customization/Clock_Ip.o
 .debug_info    0x00011c8b     0x1f8e tmp/obj/gcc/can_freertos_customization/Clock_Ip_Data.o
 .debug_info    0x00013c19       0x80 tmp/obj/gcc/can_freertos_customization/Clock_Ip_Data1.o
 .debug_info    0x00013c99       0x80 tmp/obj/gcc/can_freertos_customization/Clock_Ip_Data2.o
 .debug_info    0x00013d19      0xad3 tmp/obj/gcc/can_freertos_customization/Clock_Ip_Divider.o
 .debug_info    0x000147ec      0x629 tmp/obj/gcc/can_freertos_customization/Clock_Ip_DividerTrigger.o
 .debug_info    0x00014e15      0x9af tmp/obj/gcc/can_freertos_customization/Clock_Ip_ExtOsc.o
 .debug_info    0x000157c4      0x9a0 tmp/obj/gcc/can_freertos_customization/Clock_Ip_FracDiv.o
 .debug_info    0x00016164       0x80 tmp/obj/gcc/can_freertos_customization/Clock_Ip_Frequency.o
 .debug_info    0x000161e4       0x80 tmp/obj/gcc/can_freertos_customization/Clock_Ip_Frequency1.o
 .debug_info    0x00016264       0x80 tmp/obj/gcc/can_freertos_customization/Clock_Ip_Frequency2.o
 .debug_info    0x000162e4      0xa0c tmp/obj/gcc/can_freertos_customization/Clock_Ip_Gate.o
 .debug_info    0x00016cf0      0x6d1 tmp/obj/gcc/can_freertos_customization/Clock_Ip_IntOsc.o
 .debug_info    0x000173c1       0xa3 tmp/obj/gcc/can_freertos_customization/Clock_Ip_Irq.o
 .debug_info    0x00017464     0x1539 tmp/obj/gcc/can_freertos_customization/Clock_Ip_Monitor.o
 .debug_info    0x0001899d      0xc49 tmp/obj/gcc/can_freertos_customization/Clock_Ip_Pll.o
 .debug_info    0x000195e6      0x8a7 tmp/obj/gcc/can_freertos_customization/Clock_Ip_ProgFreqSwitch.o
 .debug_info    0x00019e8d      0xf35 tmp/obj/gcc/can_freertos_customization/Clock_Ip_Selector.o
 .debug_info    0x0001adc2     0x183e tmp/obj/gcc/can_freertos_customization/Clock_Ip_Specific.o
 .debug_info    0x0001c600       0x80 tmp/obj/gcc/can_freertos_customization/Clock_Ip_Specific1.o
 .debug_info    0x0001c680       0x80 tmp/obj/gcc/can_freertos_customization/Clock_Ip_Specific2.o
 .debug_info    0x0001c700     0x16f7 tmp/obj/gcc/can_freertos_customization/Mcu.o
 .debug_info    0x0001ddf7       0x80 tmp/obj/gcc/can_freertos_customization/Mcu_Dem_Wrapper.o
 .debug_info    0x0001de77     0x1557 tmp/obj/gcc/can_freertos_customization/Mcu_Ipw.o
 .debug_info    0x0001f3ce      0x884 tmp/obj/gcc/can_freertos_customization/Power_Ip.o
 .debug_info    0x0001fc52       0x80 tmp/obj/gcc/can_freertos_customization/Power_Ip_CortexA.o
 .debug_info    0x0001fcd2      0x62e tmp/obj/gcc/can_freertos_customization/Power_Ip_CortexM7.o
 .debug_info    0x00020300      0xbb5 tmp/obj/gcc/can_freertos_customization/Power_Ip_MC_ME.o
 .debug_info    0x00020eb5      0xe20 tmp/obj/gcc/can_freertos_customization/Power_Ip_MC_RGM.o
 .debug_info    0x00021cd5       0x80 tmp/obj/gcc/can_freertos_customization/Power_Ip_MC_RGM_Irq.o
 .debug_info    0x00021d55      0xb04 tmp/obj/gcc/can_freertos_customization/Power_Ip_MSCM.o
 .debug_info    0x00022859      0x1dc tmp/obj/gcc/can_freertos_customization/Power_Ip_PMC.o
 .debug_info    0x00022a35      0x274 tmp/obj/gcc/can_freertos_customization/Power_Ip_Private.o
 .debug_info    0x00022ca9      0x25d tmp/obj/gcc/can_freertos_customization/Ram_Ip.o
 .debug_info    0x00022f06     0x220f tmp/obj/gcc/can_freertos_customization/Port.o
 .debug_info    0x00025115     0x28de tmp/obj/gcc/can_freertos_customization/Port_Ipw.o
 .debug_info    0x000279f3     0x23c2 tmp/obj/gcc/can_freertos_customization/Siul2_Port_Ip.o
 .debug_info    0x00029db5      0x2d1 tmp/obj/gcc/can_freertos_customization/Dio.o
 .debug_info    0x0002a086      0x594 tmp/obj/gcc/can_freertos_customization/Dio_Ipw.o
 .debug_info    0x0002a61a     0x1e83 tmp/obj/gcc/can_freertos_customization/Siul2_Dio_Ip.o
 .debug_info    0x0002c49d     0x1a18 tmp/obj/gcc/can_freertos_customization/Spi.o
 .debug_info    0x0002deb5      0xf62 tmp/obj/gcc/can_freertos_customization/Spi_Ip.o
 .debug_info    0x0002ee17       0xa3 tmp/obj/gcc/can_freertos_customization/Spi_Ip_Irq.o
 .debug_info    0x0002eeba     0x1111 tmp/obj/gcc/can_freertos_customization/Spi_Ipw.o
 .debug_info    0x0002ffcb      0x2c4 tmp/obj/gcc/can_freertos_customization/SchM_Mcu.o
 .debug_info    0x0003028f     0x10a2 tmp/obj/gcc/can_freertos_customization/SchM_Port.o
 .debug_info    0x00031331      0x236 tmp/obj/gcc/can_freertos_customization/SchM_Dio.o
 .debug_info    0x00031567      0xba4 tmp/obj/gcc/can_freertos_customization/SchM_Spi.o
 .debug_info    0x0003210b     0x12e2 tmp/obj/gcc/can_freertos_customization/system.o
 .debug_info    0x000333ed     0x1dc9 tmp/obj/gcc/can_freertos_customization/IntCtrl_Ip.o
 .debug_info    0x000351b6      0xb7b tmp/obj/gcc/can_freertos_customization/Platform.o
 .debug_info    0x00035d31      0x8d2 tmp/obj/gcc/can_freertos_customization/Platform_Ipw.o
 .debug_info    0x00036603      0x337 tmp/obj/gcc/can_freertos_customization/System_Ip.o
 .debug_info    0x0003693a     0x2528 tmp/obj/gcc/can_freertos_customization/SchM_Can_43_LLCE.o
 .debug_info    0x00038e62     0x1b68 tmp/obj/gcc/can_freertos_customization/Can_43_LLCE.o
 .debug_info    0x0003a9ca     0x1305 tmp/obj/gcc/can_freertos_customization/Can_43_LLCE_IPW.o
 .debug_info    0x0003bccf      0x1e4 tmp/obj/gcc/can_freertos_customization/Can_43_LLCE_Irq.o
 .debug_info    0x0003beb3      0xccd tmp/obj/gcc/can_freertos_customization/Can_Callback.o
 .debug_info    0x0003cb80     0x396b tmp/obj/gcc/can_freertos_customization/Can_Llce.o
 .debug_info    0x000404eb     0x1bef tmp/obj/gcc/can_freertos_customization/Llce_InterfaceCanConfig.o
 .debug_info    0x000420da       0x80 tmp/obj/gcc/can_freertos_customization/Llce_SwFifo.o
 .debug_info    0x0004215a       0x72 tmp/obj/gcc/can_freertos_customization/croutine.o
 .debug_info    0x000421cc      0xa39 tmp/obj/gcc/can_freertos_customization/event_groups.o
 .debug_info    0x00042c05      0x300 tmp/obj/gcc/can_freertos_customization/list.o
 .debug_info    0x00042f05     0x1921 tmp/obj/gcc/can_freertos_customization/queue.o
 .debug_info    0x00044826     0x11b6 tmp/obj/gcc/can_freertos_customization/stream_buffer.o
 .debug_info    0x000459dc     0x2969 tmp/obj/gcc/can_freertos_customization/tasks.o
 .debug_info    0x00048345      0xee3 tmp/obj/gcc/can_freertos_customization/timers.o
 .debug_info    0x00049228      0x4e6 tmp/obj/gcc/can_freertos_customization/port_freertos.o
 .debug_info    0x0004970e      0x512 tmp/obj/gcc/can_freertos_customization/heap_4.o
 .debug_info    0x00049c20      0x257 C:\cygwin64\tmp\ccS5tM1S.o

.debug_abbrev   0x00000000     0x85e4
 .debug_abbrev  0x00000000       0x12 C:\cygwin64\tmp\ccklK50t.o
 .debug_abbrev  0x00000012       0xed tmp/obj/gcc/can_freertos_customization/nvic.o
 .debug_abbrev  0x000000ff       0x46 tmp/obj/gcc/can_freertos_customization/exceptions.o
 .debug_abbrev  0x00000145       0xc1 tmp/obj/gcc/can_freertos_customization/Platform_Init.o
 .debug_abbrev  0x00000206      0x137 tmp/obj/gcc/can_freertos_customization/can_common.o
 .debug_abbrev  0x0000033d      0x1af tmp/obj/gcc/can_freertos_customization/stubs.o
 .debug_abbrev  0x000004ec       0x53 tmp/obj/gcc/can_freertos_customization/dte.o
 .debug_abbrev  0x0000053f       0x53 tmp/obj/gcc/can_freertos_customization/frpe.o
 .debug_abbrev  0x00000592       0x53 tmp/obj/gcc/can_freertos_customization/ppe_rx.o
 .debug_abbrev  0x000005e5       0x53 tmp/obj/gcc/can_freertos_customization/ppe_tx.o
 .debug_abbrev  0x00000638      0x1ce tmp/obj/gcc/can_freertos_customization/Llce_Firmware_Load.o
 .debug_abbrev  0x00000806      0x2d2 tmp/obj/gcc/can_freertos_customization/main.o
 .debug_abbrev  0x00000ad8       0x26 tmp/obj/gcc/can_freertos_customization/TIC12400Drv.o
 .debug_abbrev  0x00000afe      0x114 tmp/obj/gcc/can_freertos_customization/Can_43_LLCE_AFcfg.o
 .debug_abbrev  0x00000c12       0x8d tmp/obj/gcc/can_freertos_customization/Can_43_LLCE_Cfg.o
 .debug_abbrev  0x00000c9f      0x1a9 tmp/obj/gcc/can_freertos_customization/Can_43_LLCE_VS_0_PBcfg.o
 .debug_abbrev  0x00000e48       0x26 tmp/obj/gcc/can_freertos_customization/Clock_Ip_Cfg.o
 .debug_abbrev  0x00000e6e       0xe4 tmp/obj/gcc/can_freertos_customization/Clock_Ip_VS_0_PBcfg.o
 .debug_abbrev  0x00000f52       0xca tmp/obj/gcc/can_freertos_customization/Dio_Cfg.o
 .debug_abbrev  0x0000101c      0x105 tmp/obj/gcc/can_freertos_customization/IntCtrl_Ip_Cfg.o
 .debug_abbrev  0x00001121       0x26 tmp/obj/gcc/can_freertos_customization/Mcu_Cfg.o
 .debug_abbrev  0x00001147      0x10b tmp/obj/gcc/can_freertos_customization/Mcu_VS_0_PBcfg.o
 .debug_abbrev  0x00001252       0x9b tmp/obj/gcc/can_freertos_customization/OsIf_Cfg.o
 .debug_abbrev  0x000012ed       0xe9 tmp/obj/gcc/can_freertos_customization/Platform_Cfg.o
 .debug_abbrev  0x000013d6       0xc2 tmp/obj/gcc/can_freertos_customization/Platform_Ipw_Cfg.o
 .debug_abbrev  0x00001498       0xca tmp/obj/gcc/can_freertos_customization/Port_Cfg.o
 .debug_abbrev  0x00001562      0x171 tmp/obj/gcc/can_freertos_customization/Port_VS_0_PBcfg.o
 .debug_abbrev  0x000016d3       0x26 tmp/obj/gcc/can_freertos_customization/Power_Ip_Cfg.o
 .debug_abbrev  0x000016f9      0x12f tmp/obj/gcc/can_freertos_customization/Power_Ip_VS_0_PBcfg.o
 .debug_abbrev  0x00001828       0x26 tmp/obj/gcc/can_freertos_customization/Ram_Ip_Cfg.o
 .debug_abbrev  0x0000184e       0x26 tmp/obj/gcc/can_freertos_customization/Ram_Ip_VS_0_PBcfg.o
 .debug_abbrev  0x00001874      0x118 tmp/obj/gcc/can_freertos_customization/Siul2_Port_Ip_VS_0_PBcfg.o
 .debug_abbrev  0x0000198c       0xd7 tmp/obj/gcc/can_freertos_customization/Spi_Ip_VS_0_PBcfg.o
 .debug_abbrev  0x00001a63       0xd7 tmp/obj/gcc/can_freertos_customization/Spi_Ipw_VS_0_PBcfg.o
 .debug_abbrev  0x00001b3a      0x176 tmp/obj/gcc/can_freertos_customization/Spi_VS_0_PBcfg.o
 .debug_abbrev  0x00001cb0       0x26 tmp/obj/gcc/can_freertos_customization/OsIf_Interrupts.o
 .debug_abbrev  0x00001cd6      0x145 tmp/obj/gcc/can_freertos_customization/OsIf_Timer.o
 .debug_abbrev  0x00001e1b      0x106 tmp/obj/gcc/can_freertos_customization/OsIf_Timer_System.o
 .debug_abbrev  0x00001f21       0x26 tmp/obj/gcc/can_freertos_customization/OsIf_Timer_System_Internal_GenericTimer.o
 .debug_abbrev  0x00001f47      0x10a tmp/obj/gcc/can_freertos_customization/OsIf_Timer_System_Internal_Systick.o
 .debug_abbrev  0x00002051      0x123 tmp/obj/gcc/can_freertos_customization/Det.o
 .debug_abbrev  0x00002174       0xbc tmp/obj/gcc/can_freertos_customization/Det_stub.o
 .debug_abbrev  0x00002230       0xdb tmp/obj/gcc/can_freertos_customization/Dem.o
 .debug_abbrev  0x0000230b      0x110 tmp/obj/gcc/can_freertos_customization/Dem_stub.o
 .debug_abbrev  0x0000241b       0xa4 tmp/obj/gcc/can_freertos_customization/EcuM.o
 .debug_abbrev  0x000024bf      0x21c tmp/obj/gcc/can_freertos_customization/Clock_Ip.o
 .debug_abbrev  0x000026db      0x125 tmp/obj/gcc/can_freertos_customization/Clock_Ip_Data.o
 .debug_abbrev  0x00002800       0x26 tmp/obj/gcc/can_freertos_customization/Clock_Ip_Data1.o
 .debug_abbrev  0x00002826       0x26 tmp/obj/gcc/can_freertos_customization/Clock_Ip_Data2.o
 .debug_abbrev  0x0000284c      0x1a4 tmp/obj/gcc/can_freertos_customization/Clock_Ip_Divider.o
 .debug_abbrev  0x000029f0      0x107 tmp/obj/gcc/can_freertos_customization/Clock_Ip_DividerTrigger.o
 .debug_abbrev  0x00002af7      0x193 tmp/obj/gcc/can_freertos_customization/Clock_Ip_ExtOsc.o
 .debug_abbrev  0x00002c8a      0x1cd tmp/obj/gcc/can_freertos_customization/Clock_Ip_FracDiv.o
 .debug_abbrev  0x00002e57       0x26 tmp/obj/gcc/can_freertos_customization/Clock_Ip_Frequency.o
 .debug_abbrev  0x00002e7d       0x26 tmp/obj/gcc/can_freertos_customization/Clock_Ip_Frequency1.o
 .debug_abbrev  0x00002ea3       0x26 tmp/obj/gcc/can_freertos_customization/Clock_Ip_Frequency2.o
 .debug_abbrev  0x00002ec9      0x193 tmp/obj/gcc/can_freertos_customization/Clock_Ip_Gate.o
 .debug_abbrev  0x0000305c      0x12e tmp/obj/gcc/can_freertos_customization/Clock_Ip_IntOsc.o
 .debug_abbrev  0x0000318a       0x46 tmp/obj/gcc/can_freertos_customization/Clock_Ip_Irq.o
 .debug_abbrev  0x000031d0      0x286 tmp/obj/gcc/can_freertos_customization/Clock_Ip_Monitor.o
 .debug_abbrev  0x00003456      0x201 tmp/obj/gcc/can_freertos_customization/Clock_Ip_Pll.o
 .debug_abbrev  0x00003657      0x177 tmp/obj/gcc/can_freertos_customization/Clock_Ip_ProgFreqSwitch.o
 .debug_abbrev  0x000037ce      0x216 tmp/obj/gcc/can_freertos_customization/Clock_Ip_Selector.o
 .debug_abbrev  0x000039e4      0x1b7 tmp/obj/gcc/can_freertos_customization/Clock_Ip_Specific.o
 .debug_abbrev  0x00003b9b       0x26 tmp/obj/gcc/can_freertos_customization/Clock_Ip_Specific1.o
 .debug_abbrev  0x00003bc1       0x26 tmp/obj/gcc/can_freertos_customization/Clock_Ip_Specific2.o
 .debug_abbrev  0x00003be7      0x1a7 tmp/obj/gcc/can_freertos_customization/Mcu.o
 .debug_abbrev  0x00003d8e       0x26 tmp/obj/gcc/can_freertos_customization/Mcu_Dem_Wrapper.o
 .debug_abbrev  0x00003db4      0x165 tmp/obj/gcc/can_freertos_customization/Mcu_Ipw.o
 .debug_abbrev  0x00003f19      0x1a9 tmp/obj/gcc/can_freertos_customization/Power_Ip.o
 .debug_abbrev  0x000040c2       0x26 tmp/obj/gcc/can_freertos_customization/Power_Ip_CortexA.o
 .debug_abbrev  0x000040e8       0xaf tmp/obj/gcc/can_freertos_customization/Power_Ip_CortexM7.o
 .debug_abbrev  0x00004197      0x17c tmp/obj/gcc/can_freertos_customization/Power_Ip_MC_ME.o
 .debug_abbrev  0x00004313      0x1da tmp/obj/gcc/can_freertos_customization/Power_Ip_MC_RGM.o
 .debug_abbrev  0x000044ed       0x26 tmp/obj/gcc/can_freertos_customization/Power_Ip_MC_RGM_Irq.o
 .debug_abbrev  0x00004513       0xcd tmp/obj/gcc/can_freertos_customization/Power_Ip_MSCM.o
 .debug_abbrev  0x000045e0       0xc0 tmp/obj/gcc/can_freertos_customization/Power_Ip_PMC.o
 .debug_abbrev  0x000046a0      0x104 tmp/obj/gcc/can_freertos_customization/Power_Ip_Private.o
 .debug_abbrev  0x000047a4       0xd9 tmp/obj/gcc/can_freertos_customization/Ram_Ip.o
 .debug_abbrev  0x0000487d      0x20c tmp/obj/gcc/can_freertos_customization/Port.o
 .debug_abbrev  0x00004a89      0x245 tmp/obj/gcc/can_freertos_customization/Port_Ipw.o
 .debug_abbrev  0x00004cce      0x1f7 tmp/obj/gcc/can_freertos_customization/Siul2_Port_Ip.o
 .debug_abbrev  0x00004ec5       0xf2 tmp/obj/gcc/can_freertos_customization/Dio.o
 .debug_abbrev  0x00004fb7      0x1a9 tmp/obj/gcc/can_freertos_customization/Dio_Ipw.o
 .debug_abbrev  0x00005160      0x1e3 tmp/obj/gcc/can_freertos_customization/Siul2_Dio_Ip.o
 .debug_abbrev  0x00005343      0x271 tmp/obj/gcc/can_freertos_customization/Spi.o
 .debug_abbrev  0x000055b4      0x209 tmp/obj/gcc/can_freertos_customization/Spi_Ip.o
 .debug_abbrev  0x000057bd       0x46 tmp/obj/gcc/can_freertos_customization/Spi_Ip_Irq.o
 .debug_abbrev  0x00005803      0x222 tmp/obj/gcc/can_freertos_customization/Spi_Ipw.o
 .debug_abbrev  0x00005a25       0xbf tmp/obj/gcc/can_freertos_customization/SchM_Mcu.o
 .debug_abbrev  0x00005ae4       0xbf tmp/obj/gcc/can_freertos_customization/SchM_Port.o
 .debug_abbrev  0x00005ba3       0xbf tmp/obj/gcc/can_freertos_customization/SchM_Dio.o
 .debug_abbrev  0x00005c62       0xbf tmp/obj/gcc/can_freertos_customization/SchM_Spi.o
 .debug_abbrev  0x00005d21      0x158 tmp/obj/gcc/can_freertos_customization/system.o
 .debug_abbrev  0x00005e79      0x1e5 tmp/obj/gcc/can_freertos_customization/IntCtrl_Ip.o
 .debug_abbrev  0x0000605e      0x1b5 tmp/obj/gcc/can_freertos_customization/Platform.o
 .debug_abbrev  0x00006213      0x10f tmp/obj/gcc/can_freertos_customization/Platform_Ipw.o
 .debug_abbrev  0x00006322      0x189 tmp/obj/gcc/can_freertos_customization/System_Ip.o
 .debug_abbrev  0x000064ab       0xbf tmp/obj/gcc/can_freertos_customization/SchM_Can_43_LLCE.o
 .debug_abbrev  0x0000656a      0x2d1 tmp/obj/gcc/can_freertos_customization/Can_43_LLCE.o
 .debug_abbrev  0x0000683b      0x24e tmp/obj/gcc/can_freertos_customization/Can_43_LLCE_IPW.o
 .debug_abbrev  0x00006a89       0xc0 tmp/obj/gcc/can_freertos_customization/Can_43_LLCE_Irq.o
 .debug_abbrev  0x00006b49      0x1fb tmp/obj/gcc/can_freertos_customization/Can_Callback.o
 .debug_abbrev  0x00006d44      0x3b2 tmp/obj/gcc/can_freertos_customization/Can_Llce.o
 .debug_abbrev  0x000070f6      0x2ac tmp/obj/gcc/can_freertos_customization/Llce_InterfaceCanConfig.o
 .debug_abbrev  0x000073a2       0x26 tmp/obj/gcc/can_freertos_customization/Llce_SwFifo.o
 .debug_abbrev  0x000073c8       0x26 tmp/obj/gcc/can_freertos_customization/croutine.o
 .debug_abbrev  0x000073ee      0x229 tmp/obj/gcc/can_freertos_customization/event_groups.o
 .debug_abbrev  0x00007617       0xf1 tmp/obj/gcc/can_freertos_customization/list.o
 .debug_abbrev  0x00007708      0x277 tmp/obj/gcc/can_freertos_customization/queue.o
 .debug_abbrev  0x0000797f      0x281 tmp/obj/gcc/can_freertos_customization/stream_buffer.o
 .debug_abbrev  0x00007c00      0x2d4 tmp/obj/gcc/can_freertos_customization/tasks.o
 .debug_abbrev  0x00007ed4      0x237 tmp/obj/gcc/can_freertos_customization/timers.o
 .debug_abbrev  0x0000810b      0x235 tmp/obj/gcc/can_freertos_customization/port_freertos.o
 .debug_abbrev  0x00008340      0x1d6 tmp/obj/gcc/can_freertos_customization/heap_4.o
 .debug_abbrev  0x00008516       0xce C:\cygwin64\tmp\ccS5tM1S.o

.debug_aranges  0x00000000     0x2940
 .debug_aranges
                0x00000000       0x28 C:\cygwin64\tmp\ccklK50t.o
 .debug_aranges
                0x00000028       0x38 tmp/obj/gcc/can_freertos_customization/nvic.o
 .debug_aranges
                0x00000060       0x68 tmp/obj/gcc/can_freertos_customization/exceptions.o
 .debug_aranges
                0x000000c8       0x30 tmp/obj/gcc/can_freertos_customization/Platform_Init.o
 .debug_aranges
                0x000000f8       0x28 tmp/obj/gcc/can_freertos_customization/can_common.o
 .debug_aranges
                0x00000120       0x70 tmp/obj/gcc/can_freertos_customization/stubs.o
 .debug_aranges
                0x00000190       0x18 tmp/obj/gcc/can_freertos_customization/dte.o
 .debug_aranges
                0x000001a8       0x18 tmp/obj/gcc/can_freertos_customization/frpe.o
 .debug_aranges
                0x000001c0       0x18 tmp/obj/gcc/can_freertos_customization/ppe_rx.o
 .debug_aranges
                0x000001d8       0x18 tmp/obj/gcc/can_freertos_customization/ppe_tx.o
 .debug_aranges
                0x000001f0       0x30 tmp/obj/gcc/can_freertos_customization/Llce_Firmware_Load.o
 .debug_aranges
                0x00000220       0x80 tmp/obj/gcc/can_freertos_customization/main.o
 .debug_aranges
                0x000002a0       0x18 tmp/obj/gcc/can_freertos_customization/TIC12400Drv.o
 .debug_aranges
                0x000002b8       0x18 tmp/obj/gcc/can_freertos_customization/Can_43_LLCE_AFcfg.o
 .debug_aranges
                0x000002d0       0x18 tmp/obj/gcc/can_freertos_customization/Can_43_LLCE_Cfg.o
 .debug_aranges
                0x000002e8       0x18 tmp/obj/gcc/can_freertos_customization/Can_43_LLCE_VS_0_PBcfg.o
 .debug_aranges
                0x00000300       0x18 tmp/obj/gcc/can_freertos_customization/Clock_Ip_Cfg.o
 .debug_aranges
                0x00000318       0x18 tmp/obj/gcc/can_freertos_customization/Clock_Ip_VS_0_PBcfg.o
 .debug_aranges
                0x00000330       0x18 tmp/obj/gcc/can_freertos_customization/Dio_Cfg.o
 .debug_aranges
                0x00000348       0x18 tmp/obj/gcc/can_freertos_customization/IntCtrl_Ip_Cfg.o
 .debug_aranges
                0x00000360       0x18 tmp/obj/gcc/can_freertos_customization/Mcu_Cfg.o
 .debug_aranges
                0x00000378       0x18 tmp/obj/gcc/can_freertos_customization/Mcu_VS_0_PBcfg.o
 .debug_aranges
                0x00000390       0x18 tmp/obj/gcc/can_freertos_customization/OsIf_Cfg.o
 .debug_aranges
                0x000003a8       0x18 tmp/obj/gcc/can_freertos_customization/Platform_Cfg.o
 .debug_aranges
                0x000003c0       0x18 tmp/obj/gcc/can_freertos_customization/Platform_Ipw_Cfg.o
 .debug_aranges
                0x000003d8       0x18 tmp/obj/gcc/can_freertos_customization/Port_Cfg.o
 .debug_aranges
                0x000003f0       0x18 tmp/obj/gcc/can_freertos_customization/Port_VS_0_PBcfg.o
 .debug_aranges
                0x00000408       0x18 tmp/obj/gcc/can_freertos_customization/Power_Ip_Cfg.o
 .debug_aranges
                0x00000420       0x18 tmp/obj/gcc/can_freertos_customization/Power_Ip_VS_0_PBcfg.o
 .debug_aranges
                0x00000438       0x18 tmp/obj/gcc/can_freertos_customization/Ram_Ip_Cfg.o
 .debug_aranges
                0x00000450       0x18 tmp/obj/gcc/can_freertos_customization/Ram_Ip_VS_0_PBcfg.o
 .debug_aranges
                0x00000468       0x18 tmp/obj/gcc/can_freertos_customization/Siul2_Port_Ip_VS_0_PBcfg.o
 .debug_aranges
                0x00000480       0x18 tmp/obj/gcc/can_freertos_customization/Spi_Ip_VS_0_PBcfg.o
 .debug_aranges
                0x00000498       0x18 tmp/obj/gcc/can_freertos_customization/Spi_Ipw_VS_0_PBcfg.o
 .debug_aranges
                0x000004b0       0x18 tmp/obj/gcc/can_freertos_customization/Spi_VS_0_PBcfg.o
 .debug_aranges
                0x000004c8       0x18 tmp/obj/gcc/can_freertos_customization/OsIf_Interrupts.o
 .debug_aranges
                0x000004e0       0x60 tmp/obj/gcc/can_freertos_customization/OsIf_Timer.o
 .debug_aranges
                0x00000540       0x40 tmp/obj/gcc/can_freertos_customization/OsIf_Timer_System.o
 .debug_aranges
                0x00000580       0x18 tmp/obj/gcc/can_freertos_customization/OsIf_Timer_System_Internal_GenericTimer.o
 .debug_aranges
                0x00000598       0x30 tmp/obj/gcc/can_freertos_customization/OsIf_Timer_System_Internal_Systick.o
 .debug_aranges
                0x000005c8       0x40 tmp/obj/gcc/can_freertos_customization/Det.o
 .debug_aranges
                0x00000608       0x48 tmp/obj/gcc/can_freertos_customization/Det_stub.o
 .debug_aranges
                0x00000650       0x28 tmp/obj/gcc/can_freertos_customization/Dem.o
 .debug_aranges
                0x00000678       0x50 tmp/obj/gcc/can_freertos_customization/Dem_stub.o
 .debug_aranges
                0x000006c8       0x30 tmp/obj/gcc/can_freertos_customization/EcuM.o
 .debug_aranges
                0x000006f8       0xa8 tmp/obj/gcc/can_freertos_customization/Clock_Ip.o
 .debug_aranges
                0x000007a0       0x18 tmp/obj/gcc/can_freertos_customization/Clock_Ip_Data.o
 .debug_aranges
                0x000007b8       0x18 tmp/obj/gcc/can_freertos_customization/Clock_Ip_Data1.o
 .debug_aranges
                0x000007d0       0x18 tmp/obj/gcc/can_freertos_customization/Clock_Ip_Data2.o
 .debug_aranges
                0x000007e8       0x38 tmp/obj/gcc/can_freertos_customization/Clock_Ip_Divider.o
 .debug_aranges
                0x00000820       0x20 tmp/obj/gcc/can_freertos_customization/Clock_Ip_DividerTrigger.o
 .debug_aranges
                0x00000840       0x50 tmp/obj/gcc/can_freertos_customization/Clock_Ip_ExtOsc.o
 .debug_aranges
                0x00000890       0x40 tmp/obj/gcc/can_freertos_customization/Clock_Ip_FracDiv.o
 .debug_aranges
                0x000008d0       0x18 tmp/obj/gcc/can_freertos_customization/Clock_Ip_Frequency.o
 .debug_aranges
                0x000008e8       0x18 tmp/obj/gcc/can_freertos_customization/Clock_Ip_Frequency1.o
 .debug_aranges
                0x00000900       0x18 tmp/obj/gcc/can_freertos_customization/Clock_Ip_Frequency2.o
 .debug_aranges
                0x00000918       0x38 tmp/obj/gcc/can_freertos_customization/Clock_Ip_Gate.o
 .debug_aranges
                0x00000950       0x28 tmp/obj/gcc/can_freertos_customization/Clock_Ip_IntOsc.o
 .debug_aranges
                0x00000978       0x20 tmp/obj/gcc/can_freertos_customization/Clock_Ip_Irq.o
 .debug_aranges
                0x00000998       0x78 tmp/obj/gcc/can_freertos_customization/Clock_Ip_Monitor.o
 .debug_aranges
                0x00000a10       0x70 tmp/obj/gcc/can_freertos_customization/Clock_Ip_Pll.o
 .debug_aranges
                0x00000a80       0x28 tmp/obj/gcc/can_freertos_customization/Clock_Ip_ProgFreqSwitch.o
 .debug_aranges
                0x00000aa8       0x80 tmp/obj/gcc/can_freertos_customization/Clock_Ip_Selector.o
 .debug_aranges
                0x00000b28       0x48 tmp/obj/gcc/can_freertos_customization/Clock_Ip_Specific.o
 .debug_aranges
                0x00000b70       0x18 tmp/obj/gcc/can_freertos_customization/Clock_Ip_Specific1.o
 .debug_aranges
                0x00000b88       0x18 tmp/obj/gcc/can_freertos_customization/Clock_Ip_Specific2.o
 .debug_aranges
                0x00000ba0       0x60 tmp/obj/gcc/can_freertos_customization/Mcu.o
 .debug_aranges
                0x00000c00       0x18 tmp/obj/gcc/can_freertos_customization/Mcu_Dem_Wrapper.o
 .debug_aranges
                0x00000c18       0x58 tmp/obj/gcc/can_freertos_customization/Mcu_Ipw.o
 .debug_aranges
                0x00000c70       0x50 tmp/obj/gcc/can_freertos_customization/Power_Ip.o
 .debug_aranges
                0x00000cc0       0x18 tmp/obj/gcc/can_freertos_customization/Power_Ip_CortexA.o
 .debug_aranges
                0x00000cd8       0x40 tmp/obj/gcc/can_freertos_customization/Power_Ip_CortexM7.o
 .debug_aranges
                0x00000d18       0x98 tmp/obj/gcc/can_freertos_customization/Power_Ip_MC_ME.o
 .debug_aranges
                0x00000db0       0xa0 tmp/obj/gcc/can_freertos_customization/Power_Ip_MC_RGM.o
 .debug_aranges
                0x00000e50       0x18 tmp/obj/gcc/can_freertos_customization/Power_Ip_MC_RGM_Irq.o
 .debug_aranges
                0x00000e68       0x20 tmp/obj/gcc/can_freertos_customization/Power_Ip_MSCM.o
 .debug_aranges
                0x00000e88       0x20 tmp/obj/gcc/can_freertos_customization/Power_Ip_PMC.o
 .debug_aranges
                0x00000ea8       0x38 tmp/obj/gcc/can_freertos_customization/Power_Ip_Private.o
 .debug_aranges
                0x00000ee0       0x20 tmp/obj/gcc/can_freertos_customization/Ram_Ip.o
 .debug_aranges
                0x00000f00       0x40 tmp/obj/gcc/can_freertos_customization/Port.o
 .debug_aranges
                0x00000f40       0x80 tmp/obj/gcc/can_freertos_customization/Port_Ipw.o
 .debug_aranges
                0x00000fc0       0x68 tmp/obj/gcc/can_freertos_customization/Siul2_Port_Ip.o
 .debug_aranges
                0x00001028       0x48 tmp/obj/gcc/can_freertos_customization/Dio.o
 .debug_aranges
                0x00001070       0x58 tmp/obj/gcc/can_freertos_customization/Dio_Ipw.o
 .debug_aranges
                0x000010c8       0x68 tmp/obj/gcc/can_freertos_customization/Siul2_Dio_Ip.o
 .debug_aranges
                0x00001130      0x118 tmp/obj/gcc/can_freertos_customization/Spi.o
 .debug_aranges
                0x00001248       0xb0 tmp/obj/gcc/can_freertos_customization/Spi_Ip.o
 .debug_aranges
                0x000012f8       0x20 tmp/obj/gcc/can_freertos_customization/Spi_Ip_Irq.o
 .debug_aranges
                0x00001318       0x60 tmp/obj/gcc/can_freertos_customization/Spi_Ipw.o
 .debug_aranges
                0x00001378       0x50 tmp/obj/gcc/can_freertos_customization/SchM_Mcu.o
 .debug_aranges
                0x000013c8      0x1e0 tmp/obj/gcc/can_freertos_customization/SchM_Port.o
 .debug_aranges
                0x000015a8       0x40 tmp/obj/gcc/can_freertos_customization/SchM_Dio.o
 .debug_aranges
                0x000015e8      0x150 tmp/obj/gcc/can_freertos_customization/SchM_Spi.o
 .debug_aranges
                0x00001738       0x40 tmp/obj/gcc/can_freertos_customization/system.o
 .debug_aranges
                0x00001778       0xd0 tmp/obj/gcc/can_freertos_customization/IntCtrl_Ip.o
 .debug_aranges
                0x00001848       0x60 tmp/obj/gcc/can_freertos_customization/Platform.o
 .debug_aranges
                0x000018a8       0x30 tmp/obj/gcc/can_freertos_customization/Platform_Ipw.o
 .debug_aranges
                0x000018d8       0x58 tmp/obj/gcc/can_freertos_customization/System_Ip.o
 .debug_aranges
                0x00001930      0x430 tmp/obj/gcc/can_freertos_customization/SchM_Can_43_LLCE.o
 .debug_aranges
                0x00001d60      0x100 tmp/obj/gcc/can_freertos_customization/Can_43_LLCE.o
 .debug_aranges
                0x00001e60       0x88 tmp/obj/gcc/can_freertos_customization/Can_43_LLCE_IPW.o
 .debug_aranges
                0x00001ee8       0x50 tmp/obj/gcc/can_freertos_customization/Can_43_LLCE_Irq.o
 .debug_aranges
                0x00001f38       0x50 tmp/obj/gcc/can_freertos_customization/Can_Callback.o
 .debug_aranges
                0x00001f88      0x220 tmp/obj/gcc/can_freertos_customization/Can_Llce.o
 .debug_aranges
                0x000021a8       0x70 tmp/obj/gcc/can_freertos_customization/Llce_InterfaceCanConfig.o
 .debug_aranges
                0x00002218       0x18 tmp/obj/gcc/can_freertos_customization/Llce_SwFifo.o
 .debug_aranges
                0x00002230       0x18 tmp/obj/gcc/can_freertos_customization/croutine.o
 .debug_aranges
                0x00002248       0x88 tmp/obj/gcc/can_freertos_customization/event_groups.o
 .debug_aranges
                0x000022d0       0x40 tmp/obj/gcc/can_freertos_customization/list.o
 .debug_aranges
                0x00002310      0x140 tmp/obj/gcc/can_freertos_customization/queue.o
 .debug_aranges
                0x00002450       0xd8 tmp/obj/gcc/can_freertos_customization/stream_buffer.o
 .debug_aranges
                0x00002528      0x230 tmp/obj/gcc/can_freertos_customization/tasks.o
 .debug_aranges
                0x00002758       0xf0 tmp/obj/gcc/can_freertos_customization/timers.o
 .debug_aranges
                0x00002848       0x80 tmp/obj/gcc/can_freertos_customization/port_freertos.o
 .debug_aranges
                0x000028c8       0x58 tmp/obj/gcc/can_freertos_customization/heap_4.o
 .debug_aranges
                0x00002920       0x20 C:\cygwin64\tmp\ccS5tM1S.o

.debug_str      0x00000000    0x18432
 .debug_str     0x00000000       0xad C:\cygwin64\tmp\ccklK50t.o
 .debug_str     0x000000ad      0x409 tmp/obj/gcc/can_freertos_customization/nvic.o
                                0x494 (size before relaxing)
 .debug_str     0x000004b6      0x102 tmp/obj/gcc/can_freertos_customization/exceptions.o
                                0x2ac (size before relaxing)
 .debug_str     0x000005b8       0xc5 tmp/obj/gcc/can_freertos_customization/Platform_Init.o
                                0x28a (size before relaxing)
 .debug_str     0x0000067d      0x11b tmp/obj/gcc/can_freertos_customization/can_common.o
                                0x314 (size before relaxing)
 .debug_str     0x00000798      0xf3f tmp/obj/gcc/can_freertos_customization/stubs.o
                               0x11c1 (size before relaxing)
 .debug_str     0x000016d7       0x4b tmp/obj/gcc/can_freertos_customization/dte.o
                                0x16d (size before relaxing)
 .debug_str     0x00001722       0x4e tmp/obj/gcc/can_freertos_customization/frpe.o
                                0x170 (size before relaxing)
 .debug_str     0x00001770       0x54 tmp/obj/gcc/can_freertos_customization/ppe_rx.o
                                0x176 (size before relaxing)
 .debug_str     0x000017c4       0x54 tmp/obj/gcc/can_freertos_customization/ppe_tx.o
                                0x176 (size before relaxing)
 .debug_str     0x00001818      0x1ec tmp/obj/gcc/can_freertos_customization/Llce_Firmware_Load.o
                                0xf26 (size before relaxing)
 .debug_str     0x00001a04     0x1115 tmp/obj/gcc/can_freertos_customization/main.o
                               0x13f5 (size before relaxing)
 .debug_str     0x00002b19       0x31 tmp/obj/gcc/can_freertos_customization/TIC12400Drv.o
                                0x1b4 (size before relaxing)
 .debug_str     0x00002b4a      0x2a9 tmp/obj/gcc/can_freertos_customization/Can_43_LLCE_AFcfg.o
                                0x4a8 (size before relaxing)
 .debug_str     0x00002df3       0xa5 tmp/obj/gcc/can_freertos_customization/Can_43_LLCE_Cfg.o
                                0x29d (size before relaxing)
 .debug_str     0x00002e98      0x5ea tmp/obj/gcc/can_freertos_customization/Can_43_LLCE_VS_0_PBcfg.o
                               0x118e (size before relaxing)
 .debug_str     0x00003482       0x46 tmp/obj/gcc/can_freertos_customization/Clock_Ip_Cfg.o
                                0x1f0 (size before relaxing)
 .debug_str     0x000034c8      0xf0b tmp/obj/gcc/can_freertos_customization/Clock_Ip_VS_0_PBcfg.o
                               0x1189 (size before relaxing)
 .debug_str     0x000043d3      0x1a1 tmp/obj/gcc/can_freertos_customization/Dio_Cfg.o
                                0x3a3 (size before relaxing)
 .debug_str     0x00004574      0xe78 tmp/obj/gcc/can_freertos_customization/IntCtrl_Ip_Cfg.o
                               0x1099 (size before relaxing)
 .debug_str     0x000053ec       0x41 tmp/obj/gcc/can_freertos_customization/Mcu_Cfg.o
                                0x1eb (size before relaxing)
 .debug_str     0x0000542d      0x66b tmp/obj/gcc/can_freertos_customization/Mcu_VS_0_PBcfg.o
                               0x17d6 (size before relaxing)
 .debug_str     0x00005a98       0x9d tmp/obj/gcc/can_freertos_customization/OsIf_Cfg.o
                                0x262 (size before relaxing)
 .debug_str     0x00005b35      0x22b tmp/obj/gcc/can_freertos_customization/Platform_Cfg.o
                               0x1242 (size before relaxing)
 .debug_str     0x00005d60       0x4a tmp/obj/gcc/can_freertos_customization/Platform_Ipw_Cfg.o
                               0x120a (size before relaxing)
 .debug_str     0x00005daa      0x23c tmp/obj/gcc/can_freertos_customization/Port_Cfg.o
                                0x434 (size before relaxing)
 .debug_str     0x00005fe6     0x12ab tmp/obj/gcc/can_freertos_customization/Port_VS_0_PBcfg.o
                               0x15c8 (size before relaxing)
 .debug_str     0x00007291       0x46 tmp/obj/gcc/can_freertos_customization/Power_Ip_Cfg.o
                                0x1f0 (size before relaxing)
 .debug_str     0x000072d7      0x259 tmp/obj/gcc/can_freertos_customization/Power_Ip_VS_0_PBcfg.o
                                0x946 (size before relaxing)
 .debug_str     0x00007530       0x44 tmp/obj/gcc/can_freertos_customization/Ram_Ip_Cfg.o
                                0x1ee (size before relaxing)
 .debug_str     0x00007574       0x4b tmp/obj/gcc/can_freertos_customization/Ram_Ip_VS_0_PBcfg.o
                                0x1f5 (size before relaxing)
 .debug_str     0x000075bf       0x52 tmp/obj/gcc/can_freertos_customization/Siul2_Port_Ip_VS_0_PBcfg.o
                               0x1339 (size before relaxing)
 .debug_str     0x00007611      0x174 tmp/obj/gcc/can_freertos_customization/Spi_Ip_VS_0_PBcfg.o
                                0x394 (size before relaxing)
 .debug_str     0x00007785      0x1f4 tmp/obj/gcc/can_freertos_customization/Spi_Ipw_VS_0_PBcfg.o
                                0x546 (size before relaxing)
 .debug_str     0x00007979      0x5b5 tmp/obj/gcc/can_freertos_customization/Spi_VS_0_PBcfg.o
                                0xa65 (size before relaxing)
 .debug_str     0x00007f2e       0x56 tmp/obj/gcc/can_freertos_customization/OsIf_Interrupts.o
                                0x200 (size before relaxing)
 .debug_str     0x00007f84      0x179 tmp/obj/gcc/can_freertos_customization/OsIf_Timer.o
                                0x350 (size before relaxing)
 .debug_str     0x000080fd      0x118 tmp/obj/gcc/can_freertos_customization/OsIf_Timer_System.o
                                0x36a (size before relaxing)
 .debug_str     0x00008215       0x6e tmp/obj/gcc/can_freertos_customization/OsIf_Timer_System_Internal_GenericTimer.o
                                0x218 (size before relaxing)
 .debug_str     0x00008283      0x10e tmp/obj/gcc/can_freertos_customization/OsIf_Timer_System_Internal_Systick.o
                                0x2de (size before relaxing)
 .debug_str     0x00008391      0x172 tmp/obj/gcc/can_freertos_customization/Det.o
                                0x3ad (size before relaxing)
 .debug_str     0x00008503       0xed tmp/obj/gcc/can_freertos_customization/Det_stub.o
                                0x3f7 (size before relaxing)
 .debug_str     0x000085f0      0x14f tmp/obj/gcc/can_freertos_customization/Dem.o
                                0x374 (size before relaxing)
 .debug_str     0x0000873f      0x123 tmp/obj/gcc/can_freertos_customization/Dem_stub.o
                                0x424 (size before relaxing)
 .debug_str     0x00008862       0xc7 tmp/obj/gcc/can_freertos_customization/EcuM.o
                                0x28c (size before relaxing)
 .debug_str     0x00008929      0xd36 tmp/obj/gcc/can_freertos_customization/Clock_Ip.o
                               0x1f17 (size before relaxing)
 .debug_str     0x0000965f      0xb71 tmp/obj/gcc/can_freertos_customization/Clock_Ip_Data.o
                               0x1a3d (size before relaxing)
 .debug_str     0x0000a1d0       0x54 tmp/obj/gcc/can_freertos_customization/Clock_Ip_Data1.o
                                0x1fe (size before relaxing)
 .debug_str     0x0000a224       0x54 tmp/obj/gcc/can_freertos_customization/Clock_Ip_Data2.o
                                0x1fe (size before relaxing)
 .debug_str     0x0000a278      0x12e tmp/obj/gcc/can_freertos_customization/Clock_Ip_Divider.o
                               0x1025 (size before relaxing)
 .debug_str     0x0000a3a6       0x83 tmp/obj/gcc/can_freertos_customization/Clock_Ip_DividerTrigger.o
                                0xd2a (size before relaxing)
 .debug_str     0x0000a429      0x177 tmp/obj/gcc/can_freertos_customization/Clock_Ip_ExtOsc.o
                               0x1008 (size before relaxing)
 .debug_str     0x0000a5a0      0x10c tmp/obj/gcc/can_freertos_customization/Clock_Ip_FracDiv.o
                                0xfb7 (size before relaxing)
 .debug_str     0x0000a6ac       0x58 tmp/obj/gcc/can_freertos_customization/Clock_Ip_Frequency.o
                                0x202 (size before relaxing)
 .debug_str     0x0000a704       0x59 tmp/obj/gcc/can_freertos_customization/Clock_Ip_Frequency1.o
                                0x203 (size before relaxing)
 .debug_str     0x0000a75d       0x59 tmp/obj/gcc/can_freertos_customization/Clock_Ip_Frequency2.o
                                0x203 (size before relaxing)
 .debug_str     0x0000a7b6      0x134 tmp/obj/gcc/can_freertos_customization/Clock_Ip_Gate.o
                               0x107b (size before relaxing)
 .debug_str     0x0000a8ea       0x9f tmp/obj/gcc/can_freertos_customization/Clock_Ip_IntOsc.o
                                0xd2b (size before relaxing)
 .debug_str     0x0000a989       0x6f tmp/obj/gcc/can_freertos_customization/Clock_Ip_Irq.o
                                0x219 (size before relaxing)
 .debug_str     0x0000a9f8      0x2c2 tmp/obj/gcc/can_freertos_customization/Clock_Ip_Monitor.o
                               0x178e (size before relaxing)
 .debug_str     0x0000acba      0x25d tmp/obj/gcc/can_freertos_customization/Clock_Ip_Pll.o
                               0x10e7 (size before relaxing)
 .debug_str     0x0000af17      0x125 tmp/obj/gcc/can_freertos_customization/Clock_Ip_ProgFreqSwitch.o
                                0xdf3 (size before relaxing)
 .debug_str     0x0000b03c      0x328 tmp/obj/gcc/can_freertos_customization/Clock_Ip_Selector.o
                               0x1293 (size before relaxing)
 .debug_str     0x0000b364      0x28e tmp/obj/gcc/can_freertos_customization/Clock_Ip_Specific.o
                               0x19d4 (size before relaxing)
 .debug_str     0x0000b5f2       0x58 tmp/obj/gcc/can_freertos_customization/Clock_Ip_Specific1.o
                                0x202 (size before relaxing)
 .debug_str     0x0000b64a       0x58 tmp/obj/gcc/can_freertos_customization/Clock_Ip_Specific2.o
                                0x202 (size before relaxing)
 .debug_str     0x0000b6a2      0x439 tmp/obj/gcc/can_freertos_customization/Mcu.o
                               0x1bf6 (size before relaxing)
 .debug_str     0x0000badb       0x55 tmp/obj/gcc/can_freertos_customization/Mcu_Dem_Wrapper.o
                                0x1ff (size before relaxing)
 .debug_str     0x0000bb30      0x115 tmp/obj/gcc/can_freertos_customization/Mcu_Ipw.o
                               0x1ad5 (size before relaxing)
 .debug_str     0x0000bc45      0x1fd tmp/obj/gcc/can_freertos_customization/Power_Ip.o
                                0xb75 (size before relaxing)
 .debug_str     0x0000be42       0x56 tmp/obj/gcc/can_freertos_customization/Power_Ip_CortexA.o
                                0x200 (size before relaxing)
 .debug_str     0x0000be98       0xec tmp/obj/gcc/can_freertos_customization/Power_Ip_CortexM7.o
                                0x48c (size before relaxing)
 .debug_str     0x0000bf84      0x3bd tmp/obj/gcc/can_freertos_customization/Power_Ip_MC_ME.o
                                0x990 (size before relaxing)
 .debug_str     0x0000c341      0x447 tmp/obj/gcc/can_freertos_customization/Power_Ip_MC_RGM.o
                                0xc05 (size before relaxing)
 .debug_str     0x0000c788       0x59 tmp/obj/gcc/can_freertos_customization/Power_Ip_MC_RGM_Irq.o
                                0x203 (size before relaxing)
 .debug_str     0x0000c7e1      0x518 tmp/obj/gcc/can_freertos_customization/Power_Ip_MSCM.o
                                0x823 (size before relaxing)
 .debug_str     0x0000ccf9       0xb2 tmp/obj/gcc/can_freertos_customization/Power_Ip_PMC.o
                                0x2de (size before relaxing)
 .debug_str     0x0000cdab       0xc7 tmp/obj/gcc/can_freertos_customization/Power_Ip_Private.o
                                0x3e5 (size before relaxing)
 .debug_str     0x0000ce72      0x184 tmp/obj/gcc/can_freertos_customization/Ram_Ip.o
                                0x3a1 (size before relaxing)
 .debug_str     0x0000cff6      0x14b tmp/obj/gcc/can_freertos_customization/Port.o
                               0x15fd (size before relaxing)
 .debug_str     0x0000d141      0x26a tmp/obj/gcc/can_freertos_customization/Port_Ipw.o
                               0x181c (size before relaxing)
 .debug_str     0x0000d3ab      0x31d tmp/obj/gcc/can_freertos_customization/Siul2_Port_Ip.o
                               0x1631 (size before relaxing)
 .debug_str     0x0000d6c8       0xef tmp/obj/gcc/can_freertos_customization/Dio.o
                                0x332 (size before relaxing)
 .debug_str     0x0000d7b7      0x1ba tmp/obj/gcc/can_freertos_customization/Dio_Ipw.o
                                0x499 (size before relaxing)
 .debug_str     0x0000d971      0x194 tmp/obj/gcc/can_freertos_customization/Siul2_Dio_Ip.o
                                0xf5b (size before relaxing)
 .debug_str     0x0000db05      0x4f7 tmp/obj/gcc/can_freertos_customization/Spi.o
                                0xe24 (size before relaxing)
 .debug_str     0x0000dffc      0x4ad tmp/obj/gcc/can_freertos_customization/Spi_Ip.o
                                0x85d (size before relaxing)
 .debug_str     0x0000e4a9       0x68 tmp/obj/gcc/can_freertos_customization/Spi_Ip_Irq.o
                                0x212 (size before relaxing)
 .debug_str     0x0000e511      0x1b3 tmp/obj/gcc/can_freertos_customization/Spi_Ipw.o
                                0xc9b (size before relaxing)
 .debug_str     0x0000e6c4      0x1fd tmp/obj/gcc/can_freertos_customization/SchM_Mcu.o
                                0x3e4 (size before relaxing)
 .debug_str     0x0000e8c1      0xfce tmp/obj/gcc/can_freertos_customization/SchM_Port.o
                               0x11bd (size before relaxing)
 .debug_str     0x0000f88f      0x16e tmp/obj/gcc/can_freertos_customization/SchM_Dio.o
                                0x35d (size before relaxing)
 .debug_str     0x0000f9fd      0xa65 tmp/obj/gcc/can_freertos_customization/SchM_Spi.o
                                0xc54 (size before relaxing)
 .debug_str     0x00010462      0x1f0 tmp/obj/gcc/can_freertos_customization/system.o
                                0xa91 (size before relaxing)
 .debug_str     0x00010652      0x4fb tmp/obj/gcc/can_freertos_customization/IntCtrl_Ip.o
                               0x1c25 (size before relaxing)
 .debug_str     0x00010b4d      0x148 tmp/obj/gcc/can_freertos_customization/Platform.o
                               0x138a (size before relaxing)
 .debug_str     0x00010c95       0x9b tmp/obj/gcc/can_freertos_customization/Platform_Ipw.o
                               0x1254 (size before relaxing)
 .debug_str     0x00010d30      0x190 tmp/obj/gcc/can_freertos_customization/System_Ip.o
                                0x447 (size before relaxing)
 .debug_str     0x00010ec0     0x26c7 tmp/obj/gcc/can_freertos_customization/SchM_Can_43_LLCE.o
                               0x28b6 (size before relaxing)
 .debug_str     0x00013587      0x706 tmp/obj/gcc/can_freertos_customization/Can_43_LLCE.o
                               0x21f3 (size before relaxing)
 .debug_str     0x00013c8d      0x29a tmp/obj/gcc/can_freertos_customization/Can_43_LLCE_IPW.o
                               0x1bab (size before relaxing)
 .debug_str     0x00013f27      0x116 tmp/obj/gcc/can_freertos_customization/Can_43_LLCE_Irq.o
                                0x2e3 (size before relaxing)
 .debug_str     0x0001403d      0x14c tmp/obj/gcc/can_freertos_customization/Can_Callback.o
                                0xe49 (size before relaxing)
 .debug_str     0x00014189     0x1825 tmp/obj/gcc/can_freertos_customization/Can_Llce.o
                               0x37c2 (size before relaxing)
 .debug_str     0x000159ae      0x19a tmp/obj/gcc/can_freertos_customization/Llce_InterfaceCanConfig.o
                               0x296d (size before relaxing)
 .debug_str     0x00015b48       0x45 tmp/obj/gcc/can_freertos_customization/Llce_SwFifo.o
                                0x1ef (size before relaxing)
 .debug_str     0x00015b8d       0x1d tmp/obj/gcc/can_freertos_customization/croutine.o
                                0x1b9 (size before relaxing)
 .debug_str     0x00015baa      0x418 tmp/obj/gcc/can_freertos_customization/event_groups.o
                                0x61c (size before relaxing)
 .debug_str     0x00015fc2       0xa6 tmp/obj/gcc/can_freertos_customization/list.o
                                0x308 (size before relaxing)
 .debug_str     0x00016068      0x672 tmp/obj/gcc/can_freertos_customization/queue.o
                                0xa0e (size before relaxing)
 .debug_str     0x000166da      0x4ec tmp/obj/gcc/can_freertos_customization/stream_buffer.o
                                0x805 (size before relaxing)
 .debug_str     0x00016bc6      0xd94 tmp/obj/gcc/can_freertos_customization/tasks.o
                               0x121f (size before relaxing)
 .debug_str     0x0001795a      0x53c tmp/obj/gcc/can_freertos_customization/timers.o
                                0x88b (size before relaxing)
 .debug_str     0x00017e96      0x1d9 tmp/obj/gcc/can_freertos_customization/port_freertos.o
                                0x45b (size before relaxing)
 .debug_str     0x0001806f      0x2c0 tmp/obj/gcc/can_freertos_customization/heap_4.o
                                0x4d2 (size before relaxing)
 .debug_str     0x0001832f      0x103 C:\cygwin64\tmp\ccS5tM1S.o
                                0x2e5 (size before relaxing)

.debug_ranges   0x00000000     0x20b8
 .debug_ranges  0x00000000       0x20 C:\cygwin64\tmp\ccklK50t.o
 .debug_ranges  0x00000020       0x28 tmp/obj/gcc/can_freertos_customization/nvic.o
 .debug_ranges  0x00000048       0x58 tmp/obj/gcc/can_freertos_customization/exceptions.o
 .debug_ranges  0x000000a0       0x20 tmp/obj/gcc/can_freertos_customization/Platform_Init.o
 .debug_ranges  0x000000c0       0x18 tmp/obj/gcc/can_freertos_customization/can_common.o
 .debug_ranges  0x000000d8       0x60 tmp/obj/gcc/can_freertos_customization/stubs.o
 .debug_ranges  0x00000138       0x20 tmp/obj/gcc/can_freertos_customization/Llce_Firmware_Load.o
 .debug_ranges  0x00000158       0x70 tmp/obj/gcc/can_freertos_customization/main.o
 .debug_ranges  0x000001c8       0x50 tmp/obj/gcc/can_freertos_customization/OsIf_Timer.o
 .debug_ranges  0x00000218       0x30 tmp/obj/gcc/can_freertos_customization/OsIf_Timer_System.o
 .debug_ranges  0x00000248       0x20 tmp/obj/gcc/can_freertos_customization/OsIf_Timer_System_Internal_Systick.o
 .debug_ranges  0x00000268       0x30 tmp/obj/gcc/can_freertos_customization/Det.o
 .debug_ranges  0x00000298       0x38 tmp/obj/gcc/can_freertos_customization/Det_stub.o
 .debug_ranges  0x000002d0       0x18 tmp/obj/gcc/can_freertos_customization/Dem.o
 .debug_ranges  0x000002e8       0x40 tmp/obj/gcc/can_freertos_customization/Dem_stub.o
 .debug_ranges  0x00000328       0x20 tmp/obj/gcc/can_freertos_customization/EcuM.o
 .debug_ranges  0x00000348       0x98 tmp/obj/gcc/can_freertos_customization/Clock_Ip.o
 .debug_ranges  0x000003e0       0x28 tmp/obj/gcc/can_freertos_customization/Clock_Ip_Divider.o
 .debug_ranges  0x00000408       0x10 tmp/obj/gcc/can_freertos_customization/Clock_Ip_DividerTrigger.o
 .debug_ranges  0x00000418       0x40 tmp/obj/gcc/can_freertos_customization/Clock_Ip_ExtOsc.o
 .debug_ranges  0x00000458       0x30 tmp/obj/gcc/can_freertos_customization/Clock_Ip_FracDiv.o
 .debug_ranges  0x00000488       0x28 tmp/obj/gcc/can_freertos_customization/Clock_Ip_Gate.o
 .debug_ranges  0x000004b0       0x18 tmp/obj/gcc/can_freertos_customization/Clock_Ip_IntOsc.o
 .debug_ranges  0x000004c8       0x10 tmp/obj/gcc/can_freertos_customization/Clock_Ip_Irq.o
 .debug_ranges  0x000004d8       0x68 tmp/obj/gcc/can_freertos_customization/Clock_Ip_Monitor.o
 .debug_ranges  0x00000540       0x60 tmp/obj/gcc/can_freertos_customization/Clock_Ip_Pll.o
 .debug_ranges  0x000005a0       0x18 tmp/obj/gcc/can_freertos_customization/Clock_Ip_ProgFreqSwitch.o
 .debug_ranges  0x000005b8       0x70 tmp/obj/gcc/can_freertos_customization/Clock_Ip_Selector.o
 .debug_ranges  0x00000628       0x38 tmp/obj/gcc/can_freertos_customization/Clock_Ip_Specific.o
 .debug_ranges  0x00000660       0x50 tmp/obj/gcc/can_freertos_customization/Mcu.o
 .debug_ranges  0x000006b0       0x48 tmp/obj/gcc/can_freertos_customization/Mcu_Ipw.o
 .debug_ranges  0x000006f8       0x40 tmp/obj/gcc/can_freertos_customization/Power_Ip.o
 .debug_ranges  0x00000738       0x30 tmp/obj/gcc/can_freertos_customization/Power_Ip_CortexM7.o
 .debug_ranges  0x00000768       0x88 tmp/obj/gcc/can_freertos_customization/Power_Ip_MC_ME.o
 .debug_ranges  0x000007f0       0x90 tmp/obj/gcc/can_freertos_customization/Power_Ip_MC_RGM.o
 .debug_ranges  0x00000880       0x10 tmp/obj/gcc/can_freertos_customization/Power_Ip_MSCM.o
 .debug_ranges  0x00000890       0x10 tmp/obj/gcc/can_freertos_customization/Power_Ip_PMC.o
 .debug_ranges  0x000008a0       0x28 tmp/obj/gcc/can_freertos_customization/Power_Ip_Private.o
 .debug_ranges  0x000008c8       0x10 tmp/obj/gcc/can_freertos_customization/Ram_Ip.o
 .debug_ranges  0x000008d8       0x30 tmp/obj/gcc/can_freertos_customization/Port.o
 .debug_ranges  0x00000908       0x70 tmp/obj/gcc/can_freertos_customization/Port_Ipw.o
 .debug_ranges  0x00000978       0x58 tmp/obj/gcc/can_freertos_customization/Siul2_Port_Ip.o
 .debug_ranges  0x000009d0       0x38 tmp/obj/gcc/can_freertos_customization/Dio.o
 .debug_ranges  0x00000a08       0x48 tmp/obj/gcc/can_freertos_customization/Dio_Ipw.o
 .debug_ranges  0x00000a50       0x58 tmp/obj/gcc/can_freertos_customization/Siul2_Dio_Ip.o
 .debug_ranges  0x00000aa8      0x108 tmp/obj/gcc/can_freertos_customization/Spi.o
 .debug_ranges  0x00000bb0       0xa0 tmp/obj/gcc/can_freertos_customization/Spi_Ip.o
 .debug_ranges  0x00000c50       0x10 tmp/obj/gcc/can_freertos_customization/Spi_Ip_Irq.o
 .debug_ranges  0x00000c60       0x50 tmp/obj/gcc/can_freertos_customization/Spi_Ipw.o
 .debug_ranges  0x00000cb0       0x40 tmp/obj/gcc/can_freertos_customization/SchM_Mcu.o
 .debug_ranges  0x00000cf0      0x1d0 tmp/obj/gcc/can_freertos_customization/SchM_Port.o
 .debug_ranges  0x00000ec0       0x30 tmp/obj/gcc/can_freertos_customization/SchM_Dio.o
 .debug_ranges  0x00000ef0      0x140 tmp/obj/gcc/can_freertos_customization/SchM_Spi.o
 .debug_ranges  0x00001030       0x30 tmp/obj/gcc/can_freertos_customization/system.o
 .debug_ranges  0x00001060       0xc0 tmp/obj/gcc/can_freertos_customization/IntCtrl_Ip.o
 .debug_ranges  0x00001120       0x50 tmp/obj/gcc/can_freertos_customization/Platform.o
 .debug_ranges  0x00001170       0x20 tmp/obj/gcc/can_freertos_customization/Platform_Ipw.o
 .debug_ranges  0x00001190       0x48 tmp/obj/gcc/can_freertos_customization/System_Ip.o
 .debug_ranges  0x000011d8      0x420 tmp/obj/gcc/can_freertos_customization/SchM_Can_43_LLCE.o
 .debug_ranges  0x000015f8       0xf0 tmp/obj/gcc/can_freertos_customization/Can_43_LLCE.o
 .debug_ranges  0x000016e8       0x78 tmp/obj/gcc/can_freertos_customization/Can_43_LLCE_IPW.o
 .debug_ranges  0x00001760       0x40 tmp/obj/gcc/can_freertos_customization/Can_43_LLCE_Irq.o
 .debug_ranges  0x000017a0       0x40 tmp/obj/gcc/can_freertos_customization/Can_Callback.o
 .debug_ranges  0x000017e0      0x210 tmp/obj/gcc/can_freertos_customization/Can_Llce.o
 .debug_ranges  0x000019f0       0x60 tmp/obj/gcc/can_freertos_customization/Llce_InterfaceCanConfig.o
 .debug_ranges  0x00001a50       0x78 tmp/obj/gcc/can_freertos_customization/event_groups.o
 .debug_ranges  0x00001ac8       0x30 tmp/obj/gcc/can_freertos_customization/list.o
 .debug_ranges  0x00001af8      0x130 tmp/obj/gcc/can_freertos_customization/queue.o
 .debug_ranges  0x00001c28       0xc8 tmp/obj/gcc/can_freertos_customization/stream_buffer.o
 .debug_ranges  0x00001cf0      0x220 tmp/obj/gcc/can_freertos_customization/tasks.o
 .debug_ranges  0x00001f10       0xe0 tmp/obj/gcc/can_freertos_customization/timers.o
 .debug_ranges  0x00001ff0       0x70 tmp/obj/gcc/can_freertos_customization/port_freertos.o
 .debug_ranges  0x00002060       0x48 tmp/obj/gcc/can_freertos_customization/heap_4.o
 .debug_ranges  0x000020a8       0x10 C:\cygwin64\tmp\ccS5tM1S.o

.debug_loc      0x00000000    0x13271
 .debug_loc     0x00000000      0x170 tmp/obj/gcc/can_freertos_customization/nvic.o
 .debug_loc     0x00000170      0x1b8 tmp/obj/gcc/can_freertos_customization/exceptions.o
 .debug_loc     0x00000328       0xb4 tmp/obj/gcc/can_freertos_customization/Platform_Init.o
 .debug_loc     0x000003dc       0xac tmp/obj/gcc/can_freertos_customization/can_common.o
 .debug_loc     0x00000488      0x3dc tmp/obj/gcc/can_freertos_customization/stubs.o
 .debug_loc     0x00000864      0x108 tmp/obj/gcc/can_freertos_customization/Llce_Firmware_Load.o
 .debug_loc     0x0000096c      0x3a4 tmp/obj/gcc/can_freertos_customization/main.o
 .debug_loc     0x00000d10      0x2e8 tmp/obj/gcc/can_freertos_customization/OsIf_Timer.o
 .debug_loc     0x00000ff8      0x19c tmp/obj/gcc/can_freertos_customization/OsIf_Timer_System.o
 .debug_loc     0x00001194       0xfc tmp/obj/gcc/can_freertos_customization/OsIf_Timer_System_Internal_Systick.o
 .debug_loc     0x00001290      0x178 tmp/obj/gcc/can_freertos_customization/Det.o
 .debug_loc     0x00001408      0x1e0 tmp/obj/gcc/can_freertos_customization/Det_stub.o
 .debug_loc     0x000015e8       0xa0 tmp/obj/gcc/can_freertos_customization/Dem.o
 .debug_loc     0x00001688      0x230 tmp/obj/gcc/can_freertos_customization/Dem_stub.o
 .debug_loc     0x000018b8      0x114 tmp/obj/gcc/can_freertos_customization/EcuM.o
 .debug_loc     0x000019cc      0x5a0 tmp/obj/gcc/can_freertos_customization/Clock_Ip.o
 .debug_loc     0x00001f6c      0x166 tmp/obj/gcc/can_freertos_customization/Clock_Ip_Divider.o
 .debug_loc     0x000020d2       0x5c tmp/obj/gcc/can_freertos_customization/Clock_Ip_DividerTrigger.o
 .debug_loc     0x0000212e      0x278 tmp/obj/gcc/can_freertos_customization/Clock_Ip_ExtOsc.o
 .debug_loc     0x000023a6      0x1c0 tmp/obj/gcc/can_freertos_customization/Clock_Ip_FracDiv.o
 .debug_loc     0x00002566      0x158 tmp/obj/gcc/can_freertos_customization/Clock_Ip_Gate.o
 .debug_loc     0x000026be       0xb8 tmp/obj/gcc/can_freertos_customization/Clock_Ip_IntOsc.o
 .debug_loc     0x00002776       0x2c tmp/obj/gcc/can_freertos_customization/Clock_Ip_Irq.o
 .debug_loc     0x000027a2      0x422 tmp/obj/gcc/can_freertos_customization/Clock_Ip_Monitor.o
 .debug_loc     0x00002bc4      0x3dc tmp/obj/gcc/can_freertos_customization/Clock_Ip_Pll.o
 .debug_loc     0x00002fa0       0xae tmp/obj/gcc/can_freertos_customization/Clock_Ip_ProgFreqSwitch.o
 .debug_loc     0x0000304e      0x464 tmp/obj/gcc/can_freertos_customization/Clock_Ip_Selector.o
 .debug_loc     0x000034b2      0x1e0 tmp/obj/gcc/can_freertos_customization/Clock_Ip_Specific.o
 .debug_loc     0x00003692      0x2dc tmp/obj/gcc/can_freertos_customization/Mcu.o
 .debug_loc     0x0000396e      0x25c tmp/obj/gcc/can_freertos_customization/Mcu_Ipw.o
 .debug_loc     0x00003bca      0x23c tmp/obj/gcc/can_freertos_customization/Power_Ip.o
 .debug_loc     0x00003e06      0x154 tmp/obj/gcc/can_freertos_customization/Power_Ip_CortexM7.o
 .debug_loc     0x00003f5a      0x4d0 tmp/obj/gcc/can_freertos_customization/Power_Ip_MC_ME.o
 .debug_loc     0x0000442a      0x58c tmp/obj/gcc/can_freertos_customization/Power_Ip_MC_RGM.o
 .debug_loc     0x000049b6       0x5c tmp/obj/gcc/can_freertos_customization/Power_Ip_MSCM.o
 .debug_loc     0x00004a12       0x5c tmp/obj/gcc/can_freertos_customization/Power_Ip_PMC.o
 .debug_loc     0x00004a6e      0x14c tmp/obj/gcc/can_freertos_customization/Power_Ip_Private.o
 .debug_loc     0x00004bba       0x5c tmp/obj/gcc/can_freertos_customization/Ram_Ip.o
 .debug_loc     0x00004c16      0x178 tmp/obj/gcc/can_freertos_customization/Port.o
 .debug_loc     0x00004d8e      0x470 tmp/obj/gcc/can_freertos_customization/Port_Ipw.o
 .debug_loc     0x000051fe      0x338 tmp/obj/gcc/can_freertos_customization/Siul2_Port_Ip.o
 .debug_loc     0x00005536      0x1e0 tmp/obj/gcc/can_freertos_customization/Dio.o
 .debug_loc     0x00005716      0x2a4 tmp/obj/gcc/can_freertos_customization/Dio_Ipw.o
 .debug_loc     0x000059ba      0x32c tmp/obj/gcc/can_freertos_customization/Siul2_Dio_Ip.o
 .debug_loc     0x00005ce6      0xa48 tmp/obj/gcc/can_freertos_customization/Spi.o
 .debug_loc     0x0000672e      0x66a tmp/obj/gcc/can_freertos_customization/Spi_Ip.o
 .debug_loc     0x00006d98       0x2c tmp/obj/gcc/can_freertos_customization/Spi_Ip_Irq.o
 .debug_loc     0x00006dc4      0x2d1 tmp/obj/gcc/can_freertos_customization/Spi_Ipw.o
 .debug_loc     0x00007095      0x224 tmp/obj/gcc/can_freertos_customization/SchM_Mcu.o
 .debug_loc     0x000072b9     0x11c4 tmp/obj/gcc/can_freertos_customization/SchM_Port.o
 .debug_loc     0x0000847d      0x184 tmp/obj/gcc/can_freertos_customization/SchM_Dio.o
 .debug_loc     0x00008601      0xc24 tmp/obj/gcc/can_freertos_customization/SchM_Spi.o
 .debug_loc     0x00009225      0x160 tmp/obj/gcc/can_freertos_customization/system.o
 .debug_loc     0x00009385      0x7a8 tmp/obj/gcc/can_freertos_customization/IntCtrl_Ip.o
 .debug_loc     0x00009b2d      0x2d0 tmp/obj/gcc/can_freertos_customization/Platform.o
 .debug_loc     0x00009dfd       0xf0 tmp/obj/gcc/can_freertos_customization/Platform_Ipw.o
 .debug_loc     0x00009eed      0x238 tmp/obj/gcc/can_freertos_customization/System_Ip.o
 .debug_loc     0x0000a125     0x28e4 tmp/obj/gcc/can_freertos_customization/SchM_Can_43_LLCE.o
 .debug_loc     0x0000ca09      0x91d tmp/obj/gcc/can_freertos_customization/Can_43_LLCE.o
 .debug_loc     0x0000d326      0x456 tmp/obj/gcc/can_freertos_customization/Can_43_LLCE_IPW.o
 .debug_loc     0x0000d77c      0x23c tmp/obj/gcc/can_freertos_customization/Can_43_LLCE_Irq.o
 .debug_loc     0x0000d9b8      0x230 tmp/obj/gcc/can_freertos_customization/Can_Callback.o
 .debug_loc     0x0000dbe8     0x14c8 tmp/obj/gcc/can_freertos_customization/Can_Llce.o
 .debug_loc     0x0000f0b0      0x3c4 tmp/obj/gcc/can_freertos_customization/Llce_InterfaceCanConfig.o
 .debug_loc     0x0000f474      0x494 tmp/obj/gcc/can_freertos_customization/event_groups.o
 .debug_loc     0x0000f908      0x1cc tmp/obj/gcc/can_freertos_customization/list.o
 .debug_loc     0x0000fad4      0xc20 tmp/obj/gcc/can_freertos_customization/queue.o
 .debug_loc     0x000106f4      0x7db tmp/obj/gcc/can_freertos_customization/stream_buffer.o
 .debug_loc     0x00010ecf     0x153e tmp/obj/gcc/can_freertos_customization/tasks.o
 .debug_loc     0x0001240d      0x888 tmp/obj/gcc/can_freertos_customization/timers.o
 .debug_loc     0x00012c95      0x30c tmp/obj/gcc/can_freertos_customization/port_freertos.o
 .debug_loc     0x00012fa1      0x274 tmp/obj/gcc/can_freertos_customization/heap_4.o
 .debug_loc     0x00013215       0x5c C:\cygwin64\tmp\ccS5tM1S.o

.debug_frame    0x00000000     0x9424
 .debug_frame   0x00000000       0xb0 tmp/obj/gcc/can_freertos_customization/nvic.o
 .debug_frame   0x000000b0      0x100 tmp/obj/gcc/can_freertos_customization/exceptions.o
 .debug_frame   0x000001b0       0x70 tmp/obj/gcc/can_freertos_customization/Platform_Init.o
 .debug_frame   0x00000220       0x5c tmp/obj/gcc/can_freertos_customization/can_common.o
 .debug_frame   0x0000027c      0x1c0 tmp/obj/gcc/can_freertos_customization/stubs.o
 .debug_frame   0x0000043c       0x84 tmp/obj/gcc/can_freertos_customization/Llce_Firmware_Load.o
 .debug_frame   0x000004c0      0x1d4 tmp/obj/gcc/can_freertos_customization/main.o
 .debug_frame   0x00000694      0x15c tmp/obj/gcc/can_freertos_customization/OsIf_Timer.o
 .debug_frame   0x000007f0       0xd0 tmp/obj/gcc/can_freertos_customization/OsIf_Timer_System.o
 .debug_frame   0x000008c0       0x80 tmp/obj/gcc/can_freertos_customization/OsIf_Timer_System_Internal_Systick.o
 .debug_frame   0x00000940       0xc8 tmp/obj/gcc/can_freertos_customization/Det.o
 .debug_frame   0x00000a08       0xf4 tmp/obj/gcc/can_freertos_customization/Det_stub.o
 .debug_frame   0x00000afc       0x5c tmp/obj/gcc/can_freertos_customization/Dem.o
 .debug_frame   0x00000b58      0x110 tmp/obj/gcc/can_freertos_customization/Dem_stub.o
 .debug_frame   0x00000c68       0x88 tmp/obj/gcc/can_freertos_customization/EcuM.o
 .debug_frame   0x00000cf0      0x2a0 tmp/obj/gcc/can_freertos_customization/Clock_Ip.o
 .debug_frame   0x00000f90       0xac tmp/obj/gcc/can_freertos_customization/Clock_Ip_Divider.o
 .debug_frame   0x0000103c       0x38 tmp/obj/gcc/can_freertos_customization/Clock_Ip_DividerTrigger.o
 .debug_frame   0x00001074      0x124 tmp/obj/gcc/can_freertos_customization/Clock_Ip_ExtOsc.o
 .debug_frame   0x00001198       0xd4 tmp/obj/gcc/can_freertos_customization/Clock_Ip_FracDiv.o
 .debug_frame   0x0000126c       0xa8 tmp/obj/gcc/can_freertos_customization/Clock_Ip_Gate.o
 .debug_frame   0x00001314       0x60 tmp/obj/gcc/can_freertos_customization/Clock_Ip_IntOsc.o
 .debug_frame   0x00001374       0x2c tmp/obj/gcc/can_freertos_customization/Clock_Ip_Irq.o
 .debug_frame   0x000013a0      0x1e4 tmp/obj/gcc/can_freertos_customization/Clock_Ip_Monitor.o
 .debug_frame   0x00001584      0x1c0 tmp/obj/gcc/can_freertos_customization/Clock_Ip_Pll.o
 .debug_frame   0x00001744       0x60 tmp/obj/gcc/can_freertos_customization/Clock_Ip_ProgFreqSwitch.o
 .debug_frame   0x000017a4      0x214 tmp/obj/gcc/can_freertos_customization/Clock_Ip_Selector.o
 .debug_frame   0x000019b8       0xec tmp/obj/gcc/can_freertos_customization/Clock_Ip_Specific.o
 .debug_frame   0x00001aa4      0x158 tmp/obj/gcc/can_freertos_customization/Mcu.o
 .debug_frame   0x00001bfc      0x128 tmp/obj/gcc/can_freertos_customization/Mcu_Ipw.o
 .debug_frame   0x00001d24      0x110 tmp/obj/gcc/can_freertos_customization/Power_Ip.o
 .debug_frame   0x00001e34       0xb0 tmp/obj/gcc/can_freertos_customization/Power_Ip_CortexM7.o
 .debug_frame   0x00001ee4      0x244 tmp/obj/gcc/can_freertos_customization/Power_Ip_MC_ME.o
 .debug_frame   0x00002128      0x288 tmp/obj/gcc/can_freertos_customization/Power_Ip_MC_RGM.o
 .debug_frame   0x000023b0       0x38 tmp/obj/gcc/can_freertos_customization/Power_Ip_MSCM.o
 .debug_frame   0x000023e8       0x38 tmp/obj/gcc/can_freertos_customization/Power_Ip_PMC.o
 .debug_frame   0x00002420       0xa4 tmp/obj/gcc/can_freertos_customization/Power_Ip_Private.o
 .debug_frame   0x000024c4       0x38 tmp/obj/gcc/can_freertos_customization/Ram_Ip.o
 .debug_frame   0x000024fc       0xc0 tmp/obj/gcc/can_freertos_customization/Port.o
 .debug_frame   0x000025bc      0x208 tmp/obj/gcc/can_freertos_customization/Port_Ipw.o
 .debug_frame   0x000027c4      0x180 tmp/obj/gcc/can_freertos_customization/Siul2_Port_Ip.o
 .debug_frame   0x00002944       0xe8 tmp/obj/gcc/can_freertos_customization/Dio.o
 .debug_frame   0x00002a2c      0x140 tmp/obj/gcc/can_freertos_customization/Dio_Ipw.o
 .debug_frame   0x00002b6c      0x180 tmp/obj/gcc/can_freertos_customization/Siul2_Dio_Ip.o
 .debug_frame   0x00002cec      0x4ac tmp/obj/gcc/can_freertos_customization/Spi.o
 .debug_frame   0x00003198      0x2e8 tmp/obj/gcc/can_freertos_customization/Spi_Ip.o
 .debug_frame   0x00003480       0x2c tmp/obj/gcc/can_freertos_customization/Spi_Ip_Irq.o
 .debug_frame   0x000034ac      0x160 tmp/obj/gcc/can_freertos_customization/Spi_Ipw.o
 .debug_frame   0x0000360c      0x10c tmp/obj/gcc/can_freertos_customization/SchM_Mcu.o
 .debug_frame   0x00003718      0x814 tmp/obj/gcc/can_freertos_customization/SchM_Port.o
 .debug_frame   0x00003f2c       0xc4 tmp/obj/gcc/can_freertos_customization/SchM_Dio.o
 .debug_frame   0x00003ff0      0x58c tmp/obj/gcc/can_freertos_customization/SchM_Spi.o
 .debug_frame   0x0000457c       0xb4 tmp/obj/gcc/can_freertos_customization/system.o
 .debug_frame   0x00004630      0x374 tmp/obj/gcc/can_freertos_customization/IntCtrl_Ip.o
 .debug_frame   0x000049a4      0x154 tmp/obj/gcc/can_freertos_customization/Platform.o
 .debug_frame   0x00004af8       0x7c tmp/obj/gcc/can_freertos_customization/Platform_Ipw.o
 .debug_frame   0x00004b74      0x120 tmp/obj/gcc/can_freertos_customization/System_Ip.o
 .debug_frame   0x00004c94     0x127c tmp/obj/gcc/can_freertos_customization/SchM_Can_43_LLCE.o
 .debug_frame   0x00005f10      0x430 tmp/obj/gcc/can_freertos_customization/Can_43_LLCE.o
 .debug_frame   0x00006340      0x20c tmp/obj/gcc/can_freertos_customization/Can_43_LLCE_IPW.o
 .debug_frame   0x0000654c      0x110 tmp/obj/gcc/can_freertos_customization/Can_43_LLCE_Irq.o
 .debug_frame   0x0000665c      0x110 tmp/obj/gcc/can_freertos_customization/Can_Callback.o
 .debug_frame   0x0000676c      0x990 tmp/obj/gcc/can_freertos_customization/Can_Llce.o
 .debug_frame   0x000070fc      0x1bc tmp/obj/gcc/can_freertos_customization/Llce_InterfaceCanConfig.o
 .debug_frame   0x000072b8      0x218 tmp/obj/gcc/can_freertos_customization/event_groups.o
 .debug_frame   0x000074d0       0xd8 tmp/obj/gcc/can_freertos_customization/list.o
 .debug_frame   0x000075a8      0x580 tmp/obj/gcc/can_freertos_customization/queue.o
 .debug_frame   0x00007b28      0x3a8 tmp/obj/gcc/can_freertos_customization/stream_buffer.o
 .debug_frame   0x00007ed0      0x9a8 tmp/obj/gcc/can_freertos_customization/tasks.o
 .debug_frame   0x00008878      0x3ec tmp/obj/gcc/can_freertos_customization/timers.o
 .debug_frame   0x00008c64      0x1a8 tmp/obj/gcc/can_freertos_customization/port_freertos.o
 .debug_frame   0x00008e0c      0x12c tmp/obj/gcc/can_freertos_customization/heap_4.o
 .debug_frame   0x00008f38       0x38 C:\cygwin64\tmp\ccS5tM1S.o
 .debug_frame   0x00008f70       0x2c c:/compiler/gcc-arm-none-eabi-10.3/bin/../lib/gcc/arm-none-eabi/10.3.1/thumb/v7e-m+fp/hard\libgcc.a(_aeabi_uldivmod.o)
 .debug_frame   0x00008f9c       0x34 c:/compiler/gcc-arm-none-eabi-10.3/bin/../lib/gcc/arm-none-eabi/10.3.1/thumb/v7e-m+fp/hard\libgcc.a(_udivmoddi4.o)
 .debug_frame   0x00008fd0       0x28 c:/compiler/gcc-arm-none-eabi-10.3/bin/../lib/gcc/arm-none-eabi/10.3.1/../../../../arm-none-eabi/lib/thumb/v7e-m+fp/hard\libg_nano.a(lib_a-memcpy-stub.o)
 .debug_frame   0x00008ff8       0x20 c:/compiler/gcc-arm-none-eabi-10.3/bin/../lib/gcc/arm-none-eabi/10.3.1/../../../../arm-none-eabi/lib/thumb/v7e-m+fp/hard\libg_nano.a(lib_a-memset.o)
 .debug_frame   0x00009018       0x6c c:/compiler/gcc-arm-none-eabi-10.3/bin/../lib/gcc/arm-none-eabi/10.3.1/../../../../arm-none-eabi/lib/thumb/v7e-m+fp/hard\libg_nano.a(lib_a-sprintf.o)
 .debug_frame   0x00009084       0x20 c:/compiler/gcc-arm-none-eabi-10.3/bin/../lib/gcc/arm-none-eabi/10.3.1/../../../../arm-none-eabi/lib/thumb/v7e-m+fp/hard\libg_nano.a(lib_a-strcpy.o)
 .debug_frame   0x000090a4       0x90 c:/compiler/gcc-arm-none-eabi-10.3/bin/../lib/gcc/arm-none-eabi/10.3.1/../../../../arm-none-eabi/lib/thumb/v7e-m+fp/hard\libg_nano.a(lib_a-nano-svfprintf.o)
 .debug_frame   0x00009134       0x60 c:/compiler/gcc-arm-none-eabi-10.3/bin/../lib/gcc/arm-none-eabi/10.3.1/../../../../arm-none-eabi/lib/thumb/v7e-m+fp/hard\libg_nano.a(lib_a-nano-vfprintf_i.o)
 .debug_frame   0x00009194       0x28 c:/compiler/gcc-arm-none-eabi-10.3/bin/../lib/gcc/arm-none-eabi/10.3.1/../../../../arm-none-eabi/lib/thumb/v7e-m+fp/hard\libg_nano.a(lib_a-memmove.o)
 .debug_frame   0x000091bc       0x38 c:/compiler/gcc-arm-none-eabi-10.3/bin/../lib/gcc/arm-none-eabi/10.3.1/../../../../arm-none-eabi/lib/thumb/v7e-m+fp/hard\libg_nano.a(lib_a-nano-freer.o)
 .debug_frame   0x000091f4       0x4c c:/compiler/gcc-arm-none-eabi-10.3/bin/../lib/gcc/arm-none-eabi/10.3.1/../../../../arm-none-eabi/lib/thumb/v7e-m+fp/hard\libg_nano.a(lib_a-nano-mallocr.o)
 .debug_frame   0x00009240       0x3c c:/compiler/gcc-arm-none-eabi-10.3/bin/../lib/gcc/arm-none-eabi/10.3.1/../../../../arm-none-eabi/lib/thumb/v7e-m+fp/hard\libg_nano.a(lib_a-nano-reallocr.o)
 .debug_frame   0x0000927c       0x2c c:/compiler/gcc-arm-none-eabi-10.3/bin/../lib/gcc/arm-none-eabi/10.3.1/../../../../arm-none-eabi/lib/thumb/v7e-m+fp/hard\libg_nano.a(lib_a-sbrkr.o)
 .debug_frame   0x000092a8       0x30 c:/compiler/gcc-arm-none-eabi-10.3/bin/../lib/gcc/arm-none-eabi/10.3.1/../../../../arm-none-eabi/lib/thumb/v7e-m+fp/hard\libg_nano.a(lib_a-mlock.o)
 .debug_frame   0x000092d8       0x20 c:/compiler/gcc-arm-none-eabi-10.3/bin/../lib/gcc/arm-none-eabi/10.3.1/../../../../arm-none-eabi/lib/thumb/v7e-m+fp/hard\libg_nano.a(lib_a-nano-msizer.o)
 .debug_frame   0x000092f8       0x5c c:/compiler/gcc-arm-none-eabi-10.3/bin/../lib/gcc/arm-none-eabi/10.3.1/../../../../arm-none-eabi/lib/thumb/v7e-m+fp/hard\libg_nano.a(lib_a-reent.o)
 .debug_frame   0x00009354       0xb0 c:/compiler/gcc-arm-none-eabi-10.3/bin/../lib/gcc/arm-none-eabi/10.3.1/../../../../arm-none-eabi/lib/thumb/v7e-m+fp/hard\libg_nano.a(lib_a-lock.o)
 .debug_frame   0x00009404       0x20 c:/compiler/gcc-arm-none-eabi-10.3/bin/../lib/gcc/arm-none-eabi/10.3.1/../../../../arm-none-eabi/lib/thumb/v7e-m+fp/hard\libnosys.a(sbrk.o)
